; ModuleID = '/workspace/tests/programs/cpp/cg_multi_inheritance.cpp'
source_filename = "/workspace/tests/programs/cpp/cg_multi_inheritance.cpp"
target datalayout = "e-m:e-i8:8:32-i16:16:32-i64:64-i128:128-n32:64-S128"
target triple = "aarch64-unknown-linux-gnu"

%class.Service = type { %class.Logger, %class.Executor }
%class.Logger = type { ptr }
%class.Executor = type { ptr }

$_ZN7ServiceC2Ev = comdat any

$_ZN7ServiceD2Ev = comdat any

$_ZN6LoggerC2Ev = comdat any

$_ZN8ExecutorC2Ev = comdat any

$_ZN7Service3logEPKc = comdat any

$_ZN7ServiceD0Ev = comdat any

$_ZN7Service4execEPKc = comdat any

$_ZThn8_N7Service4execEPKc = comdat any

$_ZThn8_N7ServiceD1Ev = comdat any

$_ZThn8_N7ServiceD0Ev = comdat any

$_ZN6Logger3logEPKc = comdat any

$_ZN6LoggerD2Ev = comdat any

$_ZN6LoggerD0Ev = comdat any

$_ZN8ExecutorD2Ev = comdat any

$_ZN8ExecutorD0Ev = comdat any

$_ZTV7Service = comdat any

$_ZTS7Service = comdat any

$_ZTS6Logger = comdat any

$_ZTI6Logger = comdat any

$_ZTS8Executor = comdat any

$_ZTI8Executor = comdat any

$_ZTI7Service = comdat any

$_ZTV6Logger = comdat any

$_ZTV8Executor = comdat any

@.str = private unnamed_addr constant [4 x i8] c"CMD\00", align 1, !dbg !0
@_ZTV7Service = linkonce_odr dso_local unnamed_addr constant { [6 x ptr], [5 x ptr] } { [6 x ptr] [ptr null, ptr @_ZTI7Service, ptr @_ZN7Service3logEPKc, ptr @_ZN7ServiceD2Ev, ptr @_ZN7ServiceD0Ev, ptr @_ZN7Service4execEPKc], [5 x ptr] [ptr inttoptr (i64 -8 to ptr), ptr @_ZTI7Service, ptr @_ZThn8_N7Service4execEPKc, ptr @_ZThn8_N7ServiceD1Ev, ptr @_ZThn8_N7ServiceD0Ev] }, comdat, align 8
@_ZTVN10__cxxabiv121__vmi_class_type_infoE = external global [0 x ptr]
@_ZTS7Service = linkonce_odr dso_local constant [9 x i8] c"7Service\00", comdat, align 1
@_ZTVN10__cxxabiv117__class_type_infoE = external global [0 x ptr]
@_ZTS6Logger = linkonce_odr dso_local constant [8 x i8] c"6Logger\00", comdat, align 1
@_ZTI6Logger = linkonce_odr dso_local constant { ptr, ptr } { ptr getelementptr inbounds (ptr, ptr @_ZTVN10__cxxabiv117__class_type_infoE, i64 2), ptr @_ZTS6Logger }, comdat, align 8
@_ZTS8Executor = linkonce_odr dso_local constant [10 x i8] c"8Executor\00", comdat, align 1
@_ZTI8Executor = linkonce_odr dso_local constant { ptr, ptr } { ptr getelementptr inbounds (ptr, ptr @_ZTVN10__cxxabiv117__class_type_infoE, i64 2), ptr @_ZTS8Executor }, comdat, align 8
@_ZTI7Service = linkonce_odr dso_local constant { ptr, ptr, i32, i32, ptr, i64, ptr, i64 } { ptr getelementptr inbounds (ptr, ptr @_ZTVN10__cxxabiv121__vmi_class_type_infoE, i64 2), ptr @_ZTS7Service, i32 0, i32 2, ptr @_ZTI6Logger, i64 2, ptr @_ZTI8Executor, i64 2050 }, comdat, align 8
@_ZTV6Logger = linkonce_odr dso_local unnamed_addr constant { [5 x ptr] } { [5 x ptr] [ptr null, ptr @_ZTI6Logger, ptr @_ZN6Logger3logEPKc, ptr @_ZN6LoggerD2Ev, ptr @_ZN6LoggerD0Ev] }, comdat, align 8
@_ZTV8Executor = linkonce_odr dso_local unnamed_addr constant { [5 x ptr] } { [5 x ptr] [ptr null, ptr @_ZTI8Executor, ptr @__cxa_pure_virtual, ptr @_ZN8ExecutorD2Ev, ptr @_ZN8ExecutorD0Ev] }, comdat, align 8

; Function Attrs: mustprogress noinline optnone uwtable
define dso_local void @_Z3runP8ExecutorPKc(ptr noundef %0, ptr noundef %1) #0 !dbg !405 {
  %3 = alloca ptr, align 8
  %4 = alloca ptr, align 8
  store ptr %0, ptr %3, align 8
  call void @llvm.dbg.declare(metadata ptr %3, metadata !422, metadata !DIExpression()), !dbg !423
  store ptr %1, ptr %4, align 8
  call void @llvm.dbg.declare(metadata ptr %4, metadata !424, metadata !DIExpression()), !dbg !425
  %5 = load ptr, ptr %3, align 8, !dbg !426
  %6 = load ptr, ptr %4, align 8, !dbg !427
  %7 = load ptr, ptr %5, align 8, !dbg !428
  %8 = getelementptr inbounds ptr, ptr %7, i64 0, !dbg !428
  %9 = load ptr, ptr %8, align 8, !dbg !428
  call void %9(ptr noundef nonnull align 8 dereferenceable(8) %5, ptr noundef %6), !dbg !428
  ret void, !dbg !429
}

; Function Attrs: nocallback nofree nosync nounwind speculatable willreturn memory(none)
declare void @llvm.dbg.declare(metadata, metadata, metadata) #1

; Function Attrs: mustprogress noinline norecurse optnone uwtable
define dso_local noundef i32 @main() #2 personality ptr @__gxx_personality_v0 !dbg !430 {
  %1 = alloca i32, align 4
  %2 = alloca ptr, align 8
  %3 = alloca %class.Service, align 8
  %4 = alloca ptr, align 8
  %5 = alloca i32, align 4
  store i32 0, ptr %1, align 4
  call void @llvm.dbg.declare(metadata ptr %2, metadata !431, metadata !DIExpression()), !dbg !432
  %6 = call ptr @getenv(ptr noundef @.str) #10, !dbg !433
  store ptr %6, ptr %2, align 8, !dbg !432
  call void @llvm.dbg.declare(metadata ptr %3, metadata !434, metadata !DIExpression()), !dbg !454
  call void @_ZN7ServiceC2Ev(ptr noundef nonnull align 8 dereferenceable(16) %3) #10, !dbg !454
  %7 = icmp eq ptr %3, null, !dbg !455
  br i1 %7, label %10, label %8, !dbg !455

8:                                                ; preds = %0
  %9 = getelementptr inbounds i8, ptr %3, i64 8, !dbg !455
  br label %10, !dbg !455

10:                                               ; preds = %8, %0
  %11 = phi ptr [ %9, %8 ], [ null, %0 ], !dbg !455
  %12 = load ptr, ptr %2, align 8, !dbg !456
  invoke void @_Z3runP8ExecutorPKc(ptr noundef %11, ptr noundef %12)
          to label %13 unwind label %15, !dbg !457

13:                                               ; preds = %10
  store i32 0, ptr %1, align 4, !dbg !458
  call void @_ZN7ServiceD2Ev(ptr noundef nonnull align 8 dereferenceable(16) %3) #10, !dbg !459
  %14 = load i32, ptr %1, align 4, !dbg !459
  ret i32 %14, !dbg !459

15:                                               ; preds = %10
  %16 = landingpad { ptr, i32 }
          cleanup, !dbg !459
  %17 = extractvalue { ptr, i32 } %16, 0, !dbg !459
  store ptr %17, ptr %4, align 8, !dbg !459
  %18 = extractvalue { ptr, i32 } %16, 1, !dbg !459
  store i32 %18, ptr %5, align 4, !dbg !459
  call void @_ZN7ServiceD2Ev(ptr noundef nonnull align 8 dereferenceable(16) %3) #10, !dbg !459
  br label %19, !dbg !459

19:                                               ; preds = %15
  %20 = load ptr, ptr %4, align 8, !dbg !459
  %21 = load i32, ptr %5, align 4, !dbg !459
  %22 = insertvalue { ptr, i32 } poison, ptr %20, 0, !dbg !459
  %23 = insertvalue { ptr, i32 } %22, i32 %21, 1, !dbg !459
  resume { ptr, i32 } %23, !dbg !459
}

; Function Attrs: nounwind
declare ptr @getenv(ptr noundef) #3

; Function Attrs: mustprogress noinline nounwind optnone uwtable
define linkonce_odr dso_local void @_ZN7ServiceC2Ev(ptr noundef nonnull align 8 dereferenceable(16) %0) unnamed_addr #4 comdat align 2 !dbg !460 {
  %2 = alloca ptr, align 8
  store ptr %0, ptr %2, align 8
  call void @llvm.dbg.declare(metadata ptr %2, metadata !464, metadata !DIExpression()), !dbg !466
  %3 = load ptr, ptr %2, align 8
  call void @_ZN6LoggerC2Ev(ptr noundef nonnull align 8 dereferenceable(8) %3) #10, !dbg !467
  %4 = getelementptr inbounds i8, ptr %3, i64 8, !dbg !467
  call void @_ZN8ExecutorC2Ev(ptr noundef nonnull align 8 dereferenceable(8) %4) #10, !dbg !467
  store ptr getelementptr inbounds ({ [6 x ptr], [5 x ptr] }, ptr @_ZTV7Service, i32 0, i32 0, i32 2), ptr %3, align 8, !dbg !467
  %5 = getelementptr inbounds i8, ptr %3, i64 8, !dbg !467
  store ptr getelementptr inbounds ({ [6 x ptr], [5 x ptr] }, ptr @_ZTV7Service, i32 0, i32 1, i32 2), ptr %5, align 8, !dbg !467
  ret void, !dbg !467
}

declare i32 @__gxx_personality_v0(...)

; Function Attrs: mustprogress noinline nounwind optnone uwtable
define linkonce_odr dso_local void @_ZN7ServiceD2Ev(ptr noundef nonnull align 8 dereferenceable(16) %0) unnamed_addr #4 comdat align 2 !dbg !468 {
  %2 = alloca ptr, align 8
  store ptr %0, ptr %2, align 8
  call void @llvm.dbg.declare(metadata ptr %2, metadata !470, metadata !DIExpression()), !dbg !471
  %3 = load ptr, ptr %2, align 8
  %4 = getelementptr inbounds i8, ptr %3, i64 8, !dbg !472
  call void @_ZN8ExecutorD2Ev(ptr noundef nonnull align 8 dereferenceable(8) %4) #10, !dbg !472
  call void @_ZN6LoggerD2Ev(ptr noundef nonnull align 8 dereferenceable(8) %3) #10, !dbg !472
  ret void, !dbg !474
}

; Function Attrs: mustprogress noinline nounwind optnone uwtable
define linkonce_odr dso_local void @_ZN6LoggerC2Ev(ptr noundef nonnull align 8 dereferenceable(8) %0) unnamed_addr #4 comdat align 2 !dbg !475 {
  %2 = alloca ptr, align 8
  store ptr %0, ptr %2, align 8
  call void @llvm.dbg.declare(metadata ptr %2, metadata !477, metadata !DIExpression()), !dbg !479
  %3 = load ptr, ptr %2, align 8
  store ptr getelementptr inbounds ({ [5 x ptr] }, ptr @_ZTV6Logger, i32 0, i32 0, i32 2), ptr %3, align 8, !dbg !480
  ret void, !dbg !480
}

; Function Attrs: mustprogress noinline nounwind optnone uwtable
define linkonce_odr dso_local void @_ZN8ExecutorC2Ev(ptr noundef nonnull align 8 dereferenceable(8) %0) unnamed_addr #4 comdat align 2 !dbg !481 {
  %2 = alloca ptr, align 8
  store ptr %0, ptr %2, align 8
  call void @llvm.dbg.declare(metadata ptr %2, metadata !483, metadata !DIExpression()), !dbg !484
  %3 = load ptr, ptr %2, align 8
  store ptr getelementptr inbounds ({ [5 x ptr] }, ptr @_ZTV8Executor, i32 0, i32 0, i32 2), ptr %3, align 8, !dbg !485
  ret void, !dbg !485
}

; Function Attrs: mustprogress noinline optnone uwtable
define linkonce_odr dso_local void @_ZN7Service3logEPKc(ptr noundef nonnull align 8 dereferenceable(16) %0, ptr noundef %1) unnamed_addr #0 comdat align 2 !dbg !486 {
  %3 = alloca ptr, align 8
  %4 = alloca ptr, align 8
  store ptr %0, ptr %3, align 8
  call void @llvm.dbg.declare(metadata ptr %3, metadata !487, metadata !DIExpression()), !dbg !488
  store ptr %1, ptr %4, align 8
  call void @llvm.dbg.declare(metadata ptr %4, metadata !489, metadata !DIExpression()), !dbg !490
  %5 = load ptr, ptr %3, align 8
  %6 = load ptr, ptr %4, align 8, !dbg !491
  %7 = call i32 @puts(ptr noundef %6), !dbg !492
  ret void, !dbg !493
}

; Function Attrs: mustprogress noinline nounwind optnone uwtable
define linkonce_odr dso_local void @_ZN7ServiceD0Ev(ptr noundef nonnull align 8 dereferenceable(16) %0) unnamed_addr #4 comdat align 2 !dbg !494 {
  %2 = alloca ptr, align 8
  store ptr %0, ptr %2, align 8
  call void @llvm.dbg.declare(metadata ptr %2, metadata !495, metadata !DIExpression()), !dbg !496
  %3 = load ptr, ptr %2, align 8
  call void @_ZN7ServiceD2Ev(ptr noundef nonnull align 8 dereferenceable(16) %3) #10, !dbg !497
  call void @_ZdlPv(ptr noundef %3) #11, !dbg !497
  ret void, !dbg !497
}

; Function Attrs: mustprogress noinline optnone uwtable
define linkonce_odr dso_local void @_ZN7Service4execEPKc(ptr noundef nonnull align 8 dereferenceable(16) %0, ptr noundef %1) unnamed_addr #0 comdat align 2 !dbg !498 {
  %3 = alloca ptr, align 8
  %4 = alloca ptr, align 8
  store ptr %0, ptr %3, align 8
  call void @llvm.dbg.declare(metadata ptr %3, metadata !499, metadata !DIExpression()), !dbg !500
  store ptr %1, ptr %4, align 8
  call void @llvm.dbg.declare(metadata ptr %4, metadata !501, metadata !DIExpression()), !dbg !502
  %5 = load ptr, ptr %3, align 8
  %6 = load ptr, ptr %4, align 8, !dbg !503
  %7 = call i32 @system(ptr noundef %6), !dbg !504
  ret void, !dbg !505
}

; Function Attrs: noinline optnone uwtable
define linkonce_odr dso_local void @_ZThn8_N7Service4execEPKc(ptr noundef %0, ptr noundef %1) unnamed_addr #5 comdat align 2 !dbg !506 {
  %3 = alloca ptr, align 8
  %4 = alloca ptr, align 8
  store ptr %0, ptr %3, align 8
  store ptr %1, ptr %4, align 8
  %5 = load ptr, ptr %3, align 8, !dbg !508
  %6 = getelementptr inbounds i8, ptr %5, i64 -8, !dbg !508
  %7 = load ptr, ptr %4, align 8, !dbg !508
  tail call void @_ZN7Service4execEPKc(ptr noundef nonnull align 8 dereferenceable(16) %6, ptr noundef %7), !dbg !508
  ret void, !dbg !508
}

; Function Attrs: noinline nounwind optnone uwtable
define linkonce_odr dso_local void @_ZThn8_N7ServiceD1Ev(ptr noundef %0) unnamed_addr #6 comdat align 2 !dbg !509 {
  %2 = alloca ptr, align 8
  store ptr %0, ptr %2, align 8
  %3 = load ptr, ptr %2, align 8, !dbg !510
  %4 = getelementptr inbounds i8, ptr %3, i64 -8, !dbg !510
  tail call void @_ZN7ServiceD2Ev(ptr noundef nonnull align 8 dereferenceable(16) %4) #10, !dbg !510
  ret void, !dbg !510
}

; Function Attrs: noinline nounwind optnone uwtable
define linkonce_odr dso_local void @_ZThn8_N7ServiceD0Ev(ptr noundef %0) unnamed_addr #6 comdat align 2 !dbg !511 {
  %2 = alloca ptr, align 8
  store ptr %0, ptr %2, align 8
  %3 = load ptr, ptr %2, align 8, !dbg !512
  %4 = getelementptr inbounds i8, ptr %3, i64 -8, !dbg !512
  tail call void @_ZN7ServiceD0Ev(ptr noundef nonnull align 8 dereferenceable(16) %4) #10, !dbg !512
  ret void, !dbg !512
}

; Function Attrs: mustprogress noinline optnone uwtable
define linkonce_odr dso_local void @_ZN6Logger3logEPKc(ptr noundef nonnull align 8 dereferenceable(8) %0, ptr noundef %1) unnamed_addr #0 comdat align 2 !dbg !513 {
  %3 = alloca ptr, align 8
  %4 = alloca ptr, align 8
  store ptr %0, ptr %3, align 8
  call void @llvm.dbg.declare(metadata ptr %3, metadata !514, metadata !DIExpression()), !dbg !515
  store ptr %1, ptr %4, align 8
  call void @llvm.dbg.declare(metadata ptr %4, metadata !516, metadata !DIExpression()), !dbg !517
  %5 = load ptr, ptr %3, align 8
  %6 = load ptr, ptr %4, align 8, !dbg !518
  %7 = call i32 @puts(ptr noundef %6), !dbg !519
  ret void, !dbg !520
}

; Function Attrs: mustprogress noinline nounwind optnone uwtable
define linkonce_odr dso_local void @_ZN6LoggerD2Ev(ptr noundef nonnull align 8 dereferenceable(8) %0) unnamed_addr #4 comdat align 2 !dbg !521 {
  %2 = alloca ptr, align 8
  store ptr %0, ptr %2, align 8
  call void @llvm.dbg.declare(metadata ptr %2, metadata !522, metadata !DIExpression()), !dbg !523
  %3 = load ptr, ptr %2, align 8
  ret void, !dbg !524
}

; Function Attrs: mustprogress noinline nounwind optnone uwtable
define linkonce_odr dso_local void @_ZN6LoggerD0Ev(ptr noundef nonnull align 8 dereferenceable(8) %0) unnamed_addr #4 comdat align 2 !dbg !525 {
  %2 = alloca ptr, align 8
  store ptr %0, ptr %2, align 8
  call void @llvm.dbg.declare(metadata ptr %2, metadata !526, metadata !DIExpression()), !dbg !527
  %3 = load ptr, ptr %2, align 8
  call void @_ZN6LoggerD2Ev(ptr noundef nonnull align 8 dereferenceable(8) %3) #10, !dbg !528
  call void @_ZdlPv(ptr noundef %3) #11, !dbg !528
  ret void, !dbg !528
}

declare i32 @puts(ptr noundef) #7

; Function Attrs: nobuiltin nounwind
declare void @_ZdlPv(ptr noundef) #8

declare void @__cxa_pure_virtual() unnamed_addr

; Function Attrs: mustprogress noinline nounwind optnone uwtable
define linkonce_odr dso_local void @_ZN8ExecutorD2Ev(ptr noundef nonnull align 8 dereferenceable(8) %0) unnamed_addr #4 comdat align 2 !dbg !529 {
  %2 = alloca ptr, align 8
  store ptr %0, ptr %2, align 8
  call void @llvm.dbg.declare(metadata ptr %2, metadata !530, metadata !DIExpression()), !dbg !531
  %3 = load ptr, ptr %2, align 8
  ret void, !dbg !532
}

; Function Attrs: mustprogress noinline nounwind optnone uwtable
define linkonce_odr dso_local void @_ZN8ExecutorD0Ev(ptr noundef nonnull align 8 dereferenceable(8) %0) unnamed_addr #4 comdat align 2 !dbg !533 {
  %2 = alloca ptr, align 8
  store ptr %0, ptr %2, align 8
  call void @llvm.dbg.declare(metadata ptr %2, metadata !534, metadata !DIExpression()), !dbg !535
  %3 = load ptr, ptr %2, align 8
  call void @llvm.trap() #12, !dbg !536
  unreachable, !dbg !536
}

; Function Attrs: cold noreturn nounwind memory(inaccessiblemem: write)
declare void @llvm.trap() #9

declare i32 @system(ptr noundef) #7

attributes #0 = { mustprogress noinline optnone uwtable "frame-pointer"="non-leaf" "no-trapping-math"="true" "stack-protector-buffer-size"="8" "target-cpu"="generic" "target-features"="+fp-armv8,+neon,+outline-atomics,+v8a,-fmv" }
attributes #1 = { nocallback nofree nosync nounwind speculatable willreturn memory(none) }
attributes #2 = { mustprogress noinline norecurse optnone uwtable "frame-pointer"="non-leaf" "no-trapping-math"="true" "stack-protector-buffer-size"="8" "target-cpu"="generic" "target-features"="+fp-armv8,+neon,+outline-atomics,+v8a,-fmv" }
attributes #3 = { nounwind "frame-pointer"="non-leaf" "no-trapping-math"="true" "stack-protector-buffer-size"="8" "target-cpu"="generic" "target-features"="+fp-armv8,+neon,+outline-atomics,+v8a,-fmv" }
attributes #4 = { mustprogress noinline nounwind optnone uwtable "frame-pointer"="non-leaf" "no-trapping-math"="true" "stack-protector-buffer-size"="8" "target-cpu"="generic" "target-features"="+fp-armv8,+neon,+outline-atomics,+v8a,-fmv" }
attributes #5 = { noinline optnone uwtable "frame-pointer"="non-leaf" "no-trapping-math"="true" "stack-protector-buffer-size"="8" "target-cpu"="generic" "target-features"="+fp-armv8,+neon,+outline-atomics,+v8a,-fmv" }
attributes #6 = { noinline nounwind optnone uwtable "frame-pointer"="non-leaf" "no-trapping-math"="true" "stack-protector-buffer-size"="8" "target-cpu"="generic" "target-features"="+fp-armv8,+neon,+outline-atomics,+v8a,-fmv" }
attributes #7 = { "frame-pointer"="non-leaf" "no-trapping-math"="true" "stack-protector-buffer-size"="8" "target-cpu"="generic" "target-features"="+fp-armv8,+neon,+outline-atomics,+v8a,-fmv" }
attributes #8 = { nobuiltin nounwind "frame-pointer"="non-leaf" "no-trapping-math"="true" "stack-protector-buffer-size"="8" "target-cpu"="generic" "target-features"="+fp-armv8,+neon,+outline-atomics,+v8a,-fmv" }
attributes #9 = { cold noreturn nounwind memory(inaccessiblemem: write) }
attributes #10 = { nounwind }
attributes #11 = { builtin nounwind }
attributes #12 = { noreturn nounwind }

!llvm.dbg.cu = !{!8}
!llvm.module.flags = !{!397, !398, !399, !400, !401, !402, !403}
!llvm.ident = !{!404}

!0 = !DIGlobalVariableExpression(var: !1, expr: !DIExpression())
!1 = distinct !DIGlobalVariable(scope: null, file: !2, line: 29, type: !3, isLocal: true, isDefinition: true)
!2 = !DIFile(filename: "cpp/cg_multi_inheritance.cpp", directory: "/workspace/tests/programs", checksumkind: CSK_MD5, checksum: "df4090ae8228a48fed0bf142968ef554")
!3 = !DICompositeType(tag: DW_TAG_array_type, baseType: !4, size: 32, elements: !6)
!4 = !DIDerivedType(tag: DW_TAG_const_type, baseType: !5)
!5 = !DIBasicType(name: "char", size: 8, encoding: DW_ATE_unsigned_char)
!6 = !{!7}
!7 = !DISubrange(count: 4)
!8 = distinct !DICompileUnit(language: DW_LANG_C_plus_plus_14, file: !9, producer: "Ubuntu clang version 18.1.3 (1ubuntu1)", isOptimized: false, runtimeVersion: 0, emissionKind: FullDebug, globals: !10, imports: !11, splitDebugInlining: false, nameTableKind: None)
!9 = !DIFile(filename: "/workspace/tests/programs/cpp/cg_multi_inheritance.cpp", directory: "/workspace/tests/programs", checksumkind: CSK_MD5, checksum: "df4090ae8228a48fed0bf142968ef554")
!10 = !{!0}
!11 = !{!12, !20, !24, !31, !35, !43, !48, !50, !56, !60, !64, !74, !76, !80, !84, !88, !93, !97, !101, !105, !109, !117, !121, !125, !127, !131, !135, !140, !146, !150, !154, !156, !164, !168, !176, !178, !182, !186, !190, !194, !199, !204, !209, !210, !211, !212, !214, !215, !216, !217, !218, !219, !220, !226, !232, !237, !241, !243, !245, !247, !249, !256, !260, !264, !268, !272, !276, !281, !285, !287, !291, !297, !301, !306, !308, !310, !314, !318, !320, !322, !324, !326, !330, !332, !334, !338, !342, !346, !350, !354, !358, !360, !368, !372, !376, !380, !382, !384, !388, !392, !393, !394, !395, !396}
!12 = !DIImportedEntity(tag: DW_TAG_imported_declaration, scope: !13, entity: !14, file: !19, line: 52)
!13 = !DINamespace(name: "std", scope: null)
!14 = !DISubprogram(name: "abs", scope: !15, file: !15, line: 980, type: !16, flags: DIFlagPrototyped, spFlags: 0)
!15 = !DIFile(filename: "/usr/include/stdlib.h", directory: "", checksumkind: CSK_MD5, checksum: "7fa2ecb2348a66f8b44ab9a15abd0b72")
!16 = !DISubroutineType(types: !17)
!17 = !{!18, !18}
!18 = !DIBasicType(name: "int", size: 32, encoding: DW_ATE_signed)
!19 = !DIFile(filename: "/usr/bin/../lib/gcc/aarch64-linux-gnu/13/../../../../include/c++/13/bits/std_abs.h", directory: "")
!20 = !DIImportedEntity(tag: DW_TAG_imported_declaration, scope: !13, entity: !21, file: !23, line: 131)
!21 = !DIDerivedType(tag: DW_TAG_typedef, name: "div_t", file: !15, line: 63, baseType: !22)
!22 = !DICompositeType(tag: DW_TAG_structure_type, file: !15, line: 59, size: 64, flags: DIFlagFwdDecl, identifier: "_ZTS5div_t")
!23 = !DIFile(filename: "/usr/bin/../lib/gcc/aarch64-linux-gnu/13/../../../../include/c++/13/cstdlib", directory: "")
!24 = !DIImportedEntity(tag: DW_TAG_imported_declaration, scope: !13, entity: !25, file: !23, line: 132)
!25 = !DIDerivedType(tag: DW_TAG_typedef, name: "ldiv_t", file: !15, line: 71, baseType: !26)
!26 = distinct !DICompositeType(tag: DW_TAG_structure_type, file: !15, line: 67, size: 128, flags: DIFlagTypePassByValue, elements: !27, identifier: "_ZTS6ldiv_t")
!27 = !{!28, !30}
!28 = !DIDerivedType(tag: DW_TAG_member, name: "quot", scope: !26, file: !15, line: 69, baseType: !29, size: 64)
!29 = !DIBasicType(name: "long", size: 64, encoding: DW_ATE_signed)
!30 = !DIDerivedType(tag: DW_TAG_member, name: "rem", scope: !26, file: !15, line: 70, baseType: !29, size: 64, offset: 64)
!31 = !DIImportedEntity(tag: DW_TAG_imported_declaration, scope: !13, entity: !32, file: !23, line: 134)
!32 = !DISubprogram(name: "abort", scope: !15, file: !15, line: 730, type: !33, flags: DIFlagPrototyped | DIFlagNoReturn, spFlags: 0)
!33 = !DISubroutineType(types: !34)
!34 = !{null}
!35 = !DIImportedEntity(tag: DW_TAG_imported_declaration, scope: !13, entity: !36, file: !23, line: 136)
!36 = !DISubprogram(name: "aligned_alloc", scope: !15, file: !15, line: 724, type: !37, flags: DIFlagPrototyped, spFlags: 0)
!37 = !DISubroutineType(types: !38)
!38 = !{!39, !40, !40}
!39 = !DIDerivedType(tag: DW_TAG_pointer_type, baseType: null, size: 64)
!40 = !DIDerivedType(tag: DW_TAG_typedef, name: "size_t", file: !41, line: 18, baseType: !42)
!41 = !DIFile(filename: "/usr/lib/llvm-18/lib/clang/18/include/__stddef_size_t.h", directory: "", checksumkind: CSK_MD5, checksum: "2c44e821a2b1951cde2eb0fb2e656867")
!42 = !DIBasicType(name: "unsigned long", size: 64, encoding: DW_ATE_unsigned)
!43 = !DIImportedEntity(tag: DW_TAG_imported_declaration, scope: !13, entity: !44, file: !23, line: 138)
!44 = !DISubprogram(name: "atexit", scope: !15, file: !15, line: 734, type: !45, flags: DIFlagPrototyped, spFlags: 0)
!45 = !DISubroutineType(types: !46)
!46 = !{!18, !47}
!47 = !DIDerivedType(tag: DW_TAG_pointer_type, baseType: !33, size: 64)
!48 = !DIImportedEntity(tag: DW_TAG_imported_declaration, scope: !13, entity: !49, file: !23, line: 141)
!49 = !DISubprogram(name: "at_quick_exit", scope: !15, file: !15, line: 739, type: !45, flags: DIFlagPrototyped, spFlags: 0)
!50 = !DIImportedEntity(tag: DW_TAG_imported_declaration, scope: !13, entity: !51, file: !23, line: 144)
!51 = !DISubprogram(name: "atof", scope: !15, file: !15, line: 102, type: !52, flags: DIFlagPrototyped, spFlags: 0)
!52 = !DISubroutineType(types: !53)
!53 = !{!54, !55}
!54 = !DIBasicType(name: "double", size: 64, encoding: DW_ATE_float)
!55 = !DIDerivedType(tag: DW_TAG_pointer_type, baseType: !4, size: 64)
!56 = !DIImportedEntity(tag: DW_TAG_imported_declaration, scope: !13, entity: !57, file: !23, line: 145)
!57 = !DISubprogram(name: "atoi", scope: !15, file: !15, line: 105, type: !58, flags: DIFlagPrototyped, spFlags: 0)
!58 = !DISubroutineType(types: !59)
!59 = !{!18, !55}
!60 = !DIImportedEntity(tag: DW_TAG_imported_declaration, scope: !13, entity: !61, file: !23, line: 146)
!61 = !DISubprogram(name: "atol", scope: !15, file: !15, line: 108, type: !62, flags: DIFlagPrototyped, spFlags: 0)
!62 = !DISubroutineType(types: !63)
!63 = !{!29, !55}
!64 = !DIImportedEntity(tag: DW_TAG_imported_declaration, scope: !13, entity: !65, file: !23, line: 147)
!65 = !DISubprogram(name: "bsearch", scope: !15, file: !15, line: 960, type: !66, flags: DIFlagPrototyped, spFlags: 0)
!66 = !DISubroutineType(types: !67)
!67 = !{!39, !68, !68, !40, !40, !70}
!68 = !DIDerivedType(tag: DW_TAG_pointer_type, baseType: !69, size: 64)
!69 = !DIDerivedType(tag: DW_TAG_const_type, baseType: null)
!70 = !DIDerivedType(tag: DW_TAG_typedef, name: "__compar_fn_t", file: !15, line: 948, baseType: !71)
!71 = !DIDerivedType(tag: DW_TAG_pointer_type, baseType: !72, size: 64)
!72 = !DISubroutineType(types: !73)
!73 = !{!18, !68, !68}
!74 = !DIImportedEntity(tag: DW_TAG_imported_declaration, scope: !13, entity: !75, file: !23, line: 148)
!75 = !DISubprogram(name: "calloc", scope: !15, file: !15, line: 675, type: !37, flags: DIFlagPrototyped, spFlags: 0)
!76 = !DIImportedEntity(tag: DW_TAG_imported_declaration, scope: !13, entity: !77, file: !23, line: 149)
!77 = !DISubprogram(name: "div", scope: !15, file: !15, line: 992, type: !78, flags: DIFlagPrototyped, spFlags: 0)
!78 = !DISubroutineType(types: !79)
!79 = !{!21, !18, !18}
!80 = !DIImportedEntity(tag: DW_TAG_imported_declaration, scope: !13, entity: !81, file: !23, line: 150)
!81 = !DISubprogram(name: "exit", scope: !15, file: !15, line: 756, type: !82, flags: DIFlagPrototyped | DIFlagNoReturn, spFlags: 0)
!82 = !DISubroutineType(types: !83)
!83 = !{null, !18}
!84 = !DIImportedEntity(tag: DW_TAG_imported_declaration, scope: !13, entity: !85, file: !23, line: 151)
!85 = !DISubprogram(name: "free", scope: !15, file: !15, line: 687, type: !86, flags: DIFlagPrototyped, spFlags: 0)
!86 = !DISubroutineType(types: !87)
!87 = !{null, !39}
!88 = !DIImportedEntity(tag: DW_TAG_imported_declaration, scope: !13, entity: !89, file: !23, line: 152)
!89 = !DISubprogram(name: "getenv", scope: !15, file: !15, line: 773, type: !90, flags: DIFlagPrototyped, spFlags: 0)
!90 = !DISubroutineType(types: !91)
!91 = !{!92, !55}
!92 = !DIDerivedType(tag: DW_TAG_pointer_type, baseType: !5, size: 64)
!93 = !DIImportedEntity(tag: DW_TAG_imported_declaration, scope: !13, entity: !94, file: !23, line: 153)
!94 = !DISubprogram(name: "labs", scope: !15, file: !15, line: 981, type: !95, flags: DIFlagPrototyped, spFlags: 0)
!95 = !DISubroutineType(types: !96)
!96 = !{!29, !29}
!97 = !DIImportedEntity(tag: DW_TAG_imported_declaration, scope: !13, entity: !98, file: !23, line: 154)
!98 = !DISubprogram(name: "ldiv", scope: !15, file: !15, line: 994, type: !99, flags: DIFlagPrototyped, spFlags: 0)
!99 = !DISubroutineType(types: !100)
!100 = !{!25, !29, !29}
!101 = !DIImportedEntity(tag: DW_TAG_imported_declaration, scope: !13, entity: !102, file: !23, line: 155)
!102 = !DISubprogram(name: "malloc", scope: !15, file: !15, line: 672, type: !103, flags: DIFlagPrototyped, spFlags: 0)
!103 = !DISubroutineType(types: !104)
!104 = !{!39, !40}
!105 = !DIImportedEntity(tag: DW_TAG_imported_declaration, scope: !13, entity: !106, file: !23, line: 157)
!106 = !DISubprogram(name: "mblen", scope: !15, file: !15, line: 1062, type: !107, flags: DIFlagPrototyped, spFlags: 0)
!107 = !DISubroutineType(types: !108)
!108 = !{!18, !55, !40}
!109 = !DIImportedEntity(tag: DW_TAG_imported_declaration, scope: !13, entity: !110, file: !23, line: 158)
!110 = !DISubprogram(name: "mbstowcs", scope: !15, file: !15, line: 1073, type: !111, flags: DIFlagPrototyped, spFlags: 0)
!111 = !DISubroutineType(types: !112)
!112 = !{!40, !113, !116, !40}
!113 = !DIDerivedType(tag: DW_TAG_restrict_type, baseType: !114)
!114 = !DIDerivedType(tag: DW_TAG_pointer_type, baseType: !115, size: 64)
!115 = !DIBasicType(name: "wchar_t", size: 32, encoding: DW_ATE_unsigned)
!116 = !DIDerivedType(tag: DW_TAG_restrict_type, baseType: !55)
!117 = !DIImportedEntity(tag: DW_TAG_imported_declaration, scope: !13, entity: !118, file: !23, line: 159)
!118 = !DISubprogram(name: "mbtowc", scope: !15, file: !15, line: 1065, type: !119, flags: DIFlagPrototyped, spFlags: 0)
!119 = !DISubroutineType(types: !120)
!120 = !{!18, !113, !116, !40}
!121 = !DIImportedEntity(tag: DW_TAG_imported_declaration, scope: !13, entity: !122, file: !23, line: 161)
!122 = !DISubprogram(name: "qsort", scope: !15, file: !15, line: 970, type: !123, flags: DIFlagPrototyped, spFlags: 0)
!123 = !DISubroutineType(types: !124)
!124 = !{null, !39, !40, !40, !70}
!125 = !DIImportedEntity(tag: DW_TAG_imported_declaration, scope: !13, entity: !126, file: !23, line: 164)
!126 = !DISubprogram(name: "quick_exit", scope: !15, file: !15, line: 762, type: !82, flags: DIFlagPrototyped | DIFlagNoReturn, spFlags: 0)
!127 = !DIImportedEntity(tag: DW_TAG_imported_declaration, scope: !13, entity: !128, file: !23, line: 167)
!128 = !DISubprogram(name: "rand", scope: !15, file: !15, line: 573, type: !129, flags: DIFlagPrototyped, spFlags: 0)
!129 = !DISubroutineType(types: !130)
!130 = !{!18}
!131 = !DIImportedEntity(tag: DW_TAG_imported_declaration, scope: !13, entity: !132, file: !23, line: 168)
!132 = !DISubprogram(name: "realloc", scope: !15, file: !15, line: 683, type: !133, flags: DIFlagPrototyped, spFlags: 0)
!133 = !DISubroutineType(types: !134)
!134 = !{!39, !39, !40}
!135 = !DIImportedEntity(tag: DW_TAG_imported_declaration, scope: !13, entity: !136, file: !23, line: 169)
!136 = !DISubprogram(name: "srand", scope: !15, file: !15, line: 575, type: !137, flags: DIFlagPrototyped, spFlags: 0)
!137 = !DISubroutineType(types: !138)
!138 = !{null, !139}
!139 = !DIBasicType(name: "unsigned int", size: 32, encoding: DW_ATE_unsigned)
!140 = !DIImportedEntity(tag: DW_TAG_imported_declaration, scope: !13, entity: !141, file: !23, line: 170)
!141 = !DISubprogram(name: "strtod", scope: !15, file: !15, line: 118, type: !142, flags: DIFlagPrototyped, spFlags: 0)
!142 = !DISubroutineType(types: !143)
!143 = !{!54, !116, !144}
!144 = !DIDerivedType(tag: DW_TAG_restrict_type, baseType: !145)
!145 = !DIDerivedType(tag: DW_TAG_pointer_type, baseType: !92, size: 64)
!146 = !DIImportedEntity(tag: DW_TAG_imported_declaration, scope: !13, entity: !147, file: !23, line: 171)
!147 = !DISubprogram(name: "strtol", linkageName: "__isoc23_strtol", scope: !15, file: !15, line: 215, type: !148, flags: DIFlagPrototyped, spFlags: 0)
!148 = !DISubroutineType(types: !149)
!149 = !{!29, !116, !144, !18}
!150 = !DIImportedEntity(tag: DW_TAG_imported_declaration, scope: !13, entity: !151, file: !23, line: 172)
!151 = !DISubprogram(name: "strtoul", linkageName: "__isoc23_strtoul", scope: !15, file: !15, line: 219, type: !152, flags: DIFlagPrototyped, spFlags: 0)
!152 = !DISubroutineType(types: !153)
!153 = !{!42, !116, !144, !18}
!154 = !DIImportedEntity(tag: DW_TAG_imported_declaration, scope: !13, entity: !155, file: !23, line: 173)
!155 = !DISubprogram(name: "system", scope: !15, file: !15, line: 923, type: !58, flags: DIFlagPrototyped, spFlags: 0)
!156 = !DIImportedEntity(tag: DW_TAG_imported_declaration, scope: !13, entity: !157, file: !23, line: 175)
!157 = !DISubprogram(name: "wcstombs", scope: !15, file: !15, line: 1077, type: !158, flags: DIFlagPrototyped, spFlags: 0)
!158 = !DISubroutineType(types: !159)
!159 = !{!40, !160, !161, !40}
!160 = !DIDerivedType(tag: DW_TAG_restrict_type, baseType: !92)
!161 = !DIDerivedType(tag: DW_TAG_restrict_type, baseType: !162)
!162 = !DIDerivedType(tag: DW_TAG_pointer_type, baseType: !163, size: 64)
!163 = !DIDerivedType(tag: DW_TAG_const_type, baseType: !115)
!164 = !DIImportedEntity(tag: DW_TAG_imported_declaration, scope: !13, entity: !165, file: !23, line: 176)
!165 = !DISubprogram(name: "wctomb", scope: !15, file: !15, line: 1069, type: !166, flags: DIFlagPrototyped, spFlags: 0)
!166 = !DISubroutineType(types: !167)
!167 = !{!18, !92, !115}
!168 = !DIImportedEntity(tag: DW_TAG_imported_declaration, scope: !169, entity: !170, file: !23, line: 204)
!169 = !DINamespace(name: "__gnu_cxx", scope: null)
!170 = !DIDerivedType(tag: DW_TAG_typedef, name: "lldiv_t", file: !15, line: 81, baseType: !171)
!171 = distinct !DICompositeType(tag: DW_TAG_structure_type, file: !15, line: 77, size: 128, flags: DIFlagTypePassByValue, elements: !172, identifier: "_ZTS7lldiv_t")
!172 = !{!173, !175}
!173 = !DIDerivedType(tag: DW_TAG_member, name: "quot", scope: !171, file: !15, line: 79, baseType: !174, size: 64)
!174 = !DIBasicType(name: "long long", size: 64, encoding: DW_ATE_signed)
!175 = !DIDerivedType(tag: DW_TAG_member, name: "rem", scope: !171, file: !15, line: 80, baseType: !174, size: 64, offset: 64)
!176 = !DIImportedEntity(tag: DW_TAG_imported_declaration, scope: !169, entity: !177, file: !23, line: 210)
!177 = !DISubprogram(name: "_Exit", scope: !15, file: !15, line: 768, type: !82, flags: DIFlagPrototyped | DIFlagNoReturn, spFlags: 0)
!178 = !DIImportedEntity(tag: DW_TAG_imported_declaration, scope: !169, entity: !179, file: !23, line: 214)
!179 = !DISubprogram(name: "llabs", scope: !15, file: !15, line: 984, type: !180, flags: DIFlagPrototyped, spFlags: 0)
!180 = !DISubroutineType(types: !181)
!181 = !{!174, !174}
!182 = !DIImportedEntity(tag: DW_TAG_imported_declaration, scope: !169, entity: !183, file: !23, line: 220)
!183 = !DISubprogram(name: "lldiv", scope: !15, file: !15, line: 998, type: !184, flags: DIFlagPrototyped, spFlags: 0)
!184 = !DISubroutineType(types: !185)
!185 = !{!170, !174, !174}
!186 = !DIImportedEntity(tag: DW_TAG_imported_declaration, scope: !169, entity: !187, file: !23, line: 231)
!187 = !DISubprogram(name: "atoll", scope: !15, file: !15, line: 113, type: !188, flags: DIFlagPrototyped, spFlags: 0)
!188 = !DISubroutineType(types: !189)
!189 = !{!174, !55}
!190 = !DIImportedEntity(tag: DW_TAG_imported_declaration, scope: !169, entity: !191, file: !23, line: 232)
!191 = !DISubprogram(name: "strtoll", linkageName: "__isoc23_strtoll", scope: !15, file: !15, line: 238, type: !192, flags: DIFlagPrototyped, spFlags: 0)
!192 = !DISubroutineType(types: !193)
!193 = !{!174, !116, !144, !18}
!194 = !DIImportedEntity(tag: DW_TAG_imported_declaration, scope: !169, entity: !195, file: !23, line: 233)
!195 = !DISubprogram(name: "strtoull", linkageName: "__isoc23_strtoull", scope: !15, file: !15, line: 243, type: !196, flags: DIFlagPrototyped, spFlags: 0)
!196 = !DISubroutineType(types: !197)
!197 = !{!198, !116, !144, !18}
!198 = !DIBasicType(name: "unsigned long long", size: 64, encoding: DW_ATE_unsigned)
!199 = !DIImportedEntity(tag: DW_TAG_imported_declaration, scope: !169, entity: !200, file: !23, line: 235)
!200 = !DISubprogram(name: "strtof", scope: !15, file: !15, line: 124, type: !201, flags: DIFlagPrototyped, spFlags: 0)
!201 = !DISubroutineType(types: !202)
!202 = !{!203, !116, !144}
!203 = !DIBasicType(name: "float", size: 32, encoding: DW_ATE_float)
!204 = !DIImportedEntity(tag: DW_TAG_imported_declaration, scope: !169, entity: !205, file: !23, line: 236)
!205 = !DISubprogram(name: "strtold", scope: !15, file: !15, line: 127, type: !206, flags: DIFlagPrototyped, spFlags: 0)
!206 = !DISubroutineType(types: !207)
!207 = !{!208, !116, !144}
!208 = !DIBasicType(name: "long double", size: 128, encoding: DW_ATE_float)
!209 = !DIImportedEntity(tag: DW_TAG_imported_declaration, scope: !13, entity: !170, file: !23, line: 244)
!210 = !DIImportedEntity(tag: DW_TAG_imported_declaration, scope: !13, entity: !177, file: !23, line: 246)
!211 = !DIImportedEntity(tag: DW_TAG_imported_declaration, scope: !13, entity: !179, file: !23, line: 248)
!212 = !DIImportedEntity(tag: DW_TAG_imported_declaration, scope: !13, entity: !213, file: !23, line: 249)
!213 = !DISubprogram(name: "div", linkageName: "_ZN9__gnu_cxx3divExx", scope: !169, file: !23, line: 217, type: !184, flags: DIFlagPrototyped, spFlags: 0)
!214 = !DIImportedEntity(tag: DW_TAG_imported_declaration, scope: !13, entity: !183, file: !23, line: 250)
!215 = !DIImportedEntity(tag: DW_TAG_imported_declaration, scope: !13, entity: !187, file: !23, line: 252)
!216 = !DIImportedEntity(tag: DW_TAG_imported_declaration, scope: !13, entity: !200, file: !23, line: 253)
!217 = !DIImportedEntity(tag: DW_TAG_imported_declaration, scope: !13, entity: !191, file: !23, line: 254)
!218 = !DIImportedEntity(tag: DW_TAG_imported_declaration, scope: !13, entity: !195, file: !23, line: 255)
!219 = !DIImportedEntity(tag: DW_TAG_imported_declaration, scope: !13, entity: !205, file: !23, line: 256)
!220 = !DIImportedEntity(tag: DW_TAG_imported_declaration, scope: !13, entity: !221, file: !225, line: 98)
!221 = !DIDerivedType(tag: DW_TAG_typedef, name: "FILE", file: !222, line: 7, baseType: !223)
!222 = !DIFile(filename: "/usr/include/aarch64-linux-gnu/bits/types/FILE.h", directory: "", checksumkind: CSK_MD5, checksum: "571f9fb6223c42439075fdde11a0de5d")
!223 = !DICompositeType(tag: DW_TAG_structure_type, name: "_IO_FILE", file: !224, line: 49, size: 1728, flags: DIFlagFwdDecl, identifier: "_ZTS8_IO_FILE")
!224 = !DIFile(filename: "/usr/include/aarch64-linux-gnu/bits/types/struct_FILE.h", directory: "", checksumkind: CSK_MD5, checksum: "7a6d4a00a37ee6b9a40cd04bd01f5d00")
!225 = !DIFile(filename: "/usr/bin/../lib/gcc/aarch64-linux-gnu/13/../../../../include/c++/13/cstdio", directory: "")
!226 = !DIImportedEntity(tag: DW_TAG_imported_declaration, scope: !13, entity: !227, file: !225, line: 99)
!227 = !DIDerivedType(tag: DW_TAG_typedef, name: "fpos_t", file: !228, line: 85, baseType: !229)
!228 = !DIFile(filename: "/usr/include/stdio.h", directory: "", checksumkind: CSK_MD5, checksum: "1e435c46987a169d9f9186f63a512303")
!229 = !DIDerivedType(tag: DW_TAG_typedef, name: "__fpos_t", file: !230, line: 14, baseType: !231)
!230 = !DIFile(filename: "/usr/include/aarch64-linux-gnu/bits/types/__fpos_t.h", directory: "", checksumkind: CSK_MD5, checksum: "32de8bdaf3551a6c0a9394f9af4389ce")
!231 = !DICompositeType(tag: DW_TAG_structure_type, name: "_G_fpos_t", file: !230, line: 10, size: 128, flags: DIFlagFwdDecl, identifier: "_ZTS9_G_fpos_t")
!232 = !DIImportedEntity(tag: DW_TAG_imported_declaration, scope: !13, entity: !233, file: !225, line: 101)
!233 = !DISubprogram(name: "clearerr", scope: !228, file: !228, line: 860, type: !234, flags: DIFlagPrototyped, spFlags: 0)
!234 = !DISubroutineType(types: !235)
!235 = !{null, !236}
!236 = !DIDerivedType(tag: DW_TAG_pointer_type, baseType: !221, size: 64)
!237 = !DIImportedEntity(tag: DW_TAG_imported_declaration, scope: !13, entity: !238, file: !225, line: 102)
!238 = !DISubprogram(name: "fclose", scope: !228, file: !228, line: 184, type: !239, flags: DIFlagPrototyped, spFlags: 0)
!239 = !DISubroutineType(types: !240)
!240 = !{!18, !236}
!241 = !DIImportedEntity(tag: DW_TAG_imported_declaration, scope: !13, entity: !242, file: !225, line: 103)
!242 = !DISubprogram(name: "feof", scope: !228, file: !228, line: 862, type: !239, flags: DIFlagPrototyped, spFlags: 0)
!243 = !DIImportedEntity(tag: DW_TAG_imported_declaration, scope: !13, entity: !244, file: !225, line: 104)
!244 = !DISubprogram(name: "ferror", scope: !228, file: !228, line: 864, type: !239, flags: DIFlagPrototyped, spFlags: 0)
!245 = !DIImportedEntity(tag: DW_TAG_imported_declaration, scope: !13, entity: !246, file: !225, line: 105)
!246 = !DISubprogram(name: "fflush", scope: !228, file: !228, line: 236, type: !239, flags: DIFlagPrototyped, spFlags: 0)
!247 = !DIImportedEntity(tag: DW_TAG_imported_declaration, scope: !13, entity: !248, file: !225, line: 106)
!248 = !DISubprogram(name: "fgetc", scope: !228, file: !228, line: 575, type: !239, flags: DIFlagPrototyped, spFlags: 0)
!249 = !DIImportedEntity(tag: DW_TAG_imported_declaration, scope: !13, entity: !250, file: !225, line: 107)
!250 = !DISubprogram(name: "fgetpos", scope: !228, file: !228, line: 829, type: !251, flags: DIFlagPrototyped, spFlags: 0)
!251 = !DISubroutineType(types: !252)
!252 = !{!18, !253, !254}
!253 = !DIDerivedType(tag: DW_TAG_restrict_type, baseType: !236)
!254 = !DIDerivedType(tag: DW_TAG_restrict_type, baseType: !255)
!255 = !DIDerivedType(tag: DW_TAG_pointer_type, baseType: !227, size: 64)
!256 = !DIImportedEntity(tag: DW_TAG_imported_declaration, scope: !13, entity: !257, file: !225, line: 108)
!257 = !DISubprogram(name: "fgets", scope: !228, file: !228, line: 654, type: !258, flags: DIFlagPrototyped, spFlags: 0)
!258 = !DISubroutineType(types: !259)
!259 = !{!92, !160, !18, !253}
!260 = !DIImportedEntity(tag: DW_TAG_imported_declaration, scope: !13, entity: !261, file: !225, line: 109)
!261 = !DISubprogram(name: "fopen", scope: !228, file: !228, line: 264, type: !262, flags: DIFlagPrototyped, spFlags: 0)
!262 = !DISubroutineType(types: !263)
!263 = !{!236, !116, !116}
!264 = !DIImportedEntity(tag: DW_TAG_imported_declaration, scope: !13, entity: !265, file: !225, line: 110)
!265 = !DISubprogram(name: "fprintf", scope: !228, file: !228, line: 357, type: !266, flags: DIFlagPrototyped, spFlags: 0)
!266 = !DISubroutineType(types: !267)
!267 = !{!18, !253, !116, null}
!268 = !DIImportedEntity(tag: DW_TAG_imported_declaration, scope: !13, entity: !269, file: !225, line: 111)
!269 = !DISubprogram(name: "fputc", scope: !228, file: !228, line: 611, type: !270, flags: DIFlagPrototyped, spFlags: 0)
!270 = !DISubroutineType(types: !271)
!271 = !{!18, !18, !236}
!272 = !DIImportedEntity(tag: DW_TAG_imported_declaration, scope: !13, entity: !273, file: !225, line: 112)
!273 = !DISubprogram(name: "fputs", scope: !228, file: !228, line: 717, type: !274, flags: DIFlagPrototyped, spFlags: 0)
!274 = !DISubroutineType(types: !275)
!275 = !{!18, !116, !253}
!276 = !DIImportedEntity(tag: DW_TAG_imported_declaration, scope: !13, entity: !277, file: !225, line: 113)
!277 = !DISubprogram(name: "fread", scope: !228, file: !228, line: 738, type: !278, flags: DIFlagPrototyped, spFlags: 0)
!278 = !DISubroutineType(types: !279)
!279 = !{!40, !280, !40, !40, !253}
!280 = !DIDerivedType(tag: DW_TAG_restrict_type, baseType: !39)
!281 = !DIImportedEntity(tag: DW_TAG_imported_declaration, scope: !13, entity: !282, file: !225, line: 114)
!282 = !DISubprogram(name: "freopen", scope: !228, file: !228, line: 271, type: !283, flags: DIFlagPrototyped, spFlags: 0)
!283 = !DISubroutineType(types: !284)
!284 = !{!236, !116, !116, !253}
!285 = !DIImportedEntity(tag: DW_TAG_imported_declaration, scope: !13, entity: !286, file: !225, line: 115)
!286 = !DISubprogram(name: "fscanf", linkageName: "__isoc23_fscanf", scope: !228, file: !228, line: 442, type: !266, flags: DIFlagPrototyped, spFlags: 0)
!287 = !DIImportedEntity(tag: DW_TAG_imported_declaration, scope: !13, entity: !288, file: !225, line: 116)
!288 = !DISubprogram(name: "fseek", scope: !228, file: !228, line: 779, type: !289, flags: DIFlagPrototyped, spFlags: 0)
!289 = !DISubroutineType(types: !290)
!290 = !{!18, !236, !29, !18}
!291 = !DIImportedEntity(tag: DW_TAG_imported_declaration, scope: !13, entity: !292, file: !225, line: 117)
!292 = !DISubprogram(name: "fsetpos", scope: !228, file: !228, line: 835, type: !293, flags: DIFlagPrototyped, spFlags: 0)
!293 = !DISubroutineType(types: !294)
!294 = !{!18, !236, !295}
!295 = !DIDerivedType(tag: DW_TAG_pointer_type, baseType: !296, size: 64)
!296 = !DIDerivedType(tag: DW_TAG_const_type, baseType: !227)
!297 = !DIImportedEntity(tag: DW_TAG_imported_declaration, scope: !13, entity: !298, file: !225, line: 118)
!298 = !DISubprogram(name: "ftell", scope: !228, file: !228, line: 785, type: !299, flags: DIFlagPrototyped, spFlags: 0)
!299 = !DISubroutineType(types: !300)
!300 = !{!29, !236}
!301 = !DIImportedEntity(tag: DW_TAG_imported_declaration, scope: !13, entity: !302, file: !225, line: 119)
!302 = !DISubprogram(name: "fwrite", scope: !228, file: !228, line: 745, type: !303, flags: DIFlagPrototyped, spFlags: 0)
!303 = !DISubroutineType(types: !304)
!304 = !{!40, !305, !40, !40, !253}
!305 = !DIDerivedType(tag: DW_TAG_restrict_type, baseType: !68)
!306 = !DIImportedEntity(tag: DW_TAG_imported_declaration, scope: !13, entity: !307, file: !225, line: 120)
!307 = !DISubprogram(name: "getc", scope: !228, file: !228, line: 576, type: !239, flags: DIFlagPrototyped, spFlags: 0)
!308 = !DIImportedEntity(tag: DW_TAG_imported_declaration, scope: !13, entity: !309, file: !225, line: 121)
!309 = !DISubprogram(name: "getchar", scope: !228, file: !228, line: 582, type: !129, flags: DIFlagPrototyped, spFlags: 0)
!310 = !DIImportedEntity(tag: DW_TAG_imported_declaration, scope: !13, entity: !311, file: !225, line: 126)
!311 = !DISubprogram(name: "perror", scope: !228, file: !228, line: 878, type: !312, flags: DIFlagPrototyped, spFlags: 0)
!312 = !DISubroutineType(types: !313)
!313 = !{null, !55}
!314 = !DIImportedEntity(tag: DW_TAG_imported_declaration, scope: !13, entity: !315, file: !225, line: 127)
!315 = !DISubprogram(name: "printf", scope: !228, file: !228, line: 363, type: !316, flags: DIFlagPrototyped, spFlags: 0)
!316 = !DISubroutineType(types: !317)
!317 = !{!18, !116, null}
!318 = !DIImportedEntity(tag: DW_TAG_imported_declaration, scope: !13, entity: !319, file: !225, line: 128)
!319 = !DISubprogram(name: "putc", scope: !228, file: !228, line: 612, type: !270, flags: DIFlagPrototyped, spFlags: 0)
!320 = !DIImportedEntity(tag: DW_TAG_imported_declaration, scope: !13, entity: !321, file: !225, line: 129)
!321 = !DISubprogram(name: "putchar", scope: !228, file: !228, line: 618, type: !16, flags: DIFlagPrototyped, spFlags: 0)
!322 = !DIImportedEntity(tag: DW_TAG_imported_declaration, scope: !13, entity: !323, file: !225, line: 130)
!323 = !DISubprogram(name: "puts", scope: !228, file: !228, line: 724, type: !58, flags: DIFlagPrototyped, spFlags: 0)
!324 = !DIImportedEntity(tag: DW_TAG_imported_declaration, scope: !13, entity: !325, file: !225, line: 131)
!325 = !DISubprogram(name: "remove", scope: !228, file: !228, line: 158, type: !58, flags: DIFlagPrototyped, spFlags: 0)
!326 = !DIImportedEntity(tag: DW_TAG_imported_declaration, scope: !13, entity: !327, file: !225, line: 132)
!327 = !DISubprogram(name: "rename", scope: !228, file: !228, line: 160, type: !328, flags: DIFlagPrototyped, spFlags: 0)
!328 = !DISubroutineType(types: !329)
!329 = !{!18, !55, !55}
!330 = !DIImportedEntity(tag: DW_TAG_imported_declaration, scope: !13, entity: !331, file: !225, line: 133)
!331 = !DISubprogram(name: "rewind", scope: !228, file: !228, line: 790, type: !234, flags: DIFlagPrototyped, spFlags: 0)
!332 = !DIImportedEntity(tag: DW_TAG_imported_declaration, scope: !13, entity: !333, file: !225, line: 134)
!333 = !DISubprogram(name: "scanf", linkageName: "__isoc23_scanf", scope: !228, file: !228, line: 445, type: !316, flags: DIFlagPrototyped, spFlags: 0)
!334 = !DIImportedEntity(tag: DW_TAG_imported_declaration, scope: !13, entity: !335, file: !225, line: 135)
!335 = !DISubprogram(name: "setbuf", scope: !228, file: !228, line: 334, type: !336, flags: DIFlagPrototyped, spFlags: 0)
!336 = !DISubroutineType(types: !337)
!337 = !{null, !253, !160}
!338 = !DIImportedEntity(tag: DW_TAG_imported_declaration, scope: !13, entity: !339, file: !225, line: 136)
!339 = !DISubprogram(name: "setvbuf", scope: !228, file: !228, line: 339, type: !340, flags: DIFlagPrototyped, spFlags: 0)
!340 = !DISubroutineType(types: !341)
!341 = !{!18, !253, !160, !18, !40}
!342 = !DIImportedEntity(tag: DW_TAG_imported_declaration, scope: !13, entity: !343, file: !225, line: 137)
!343 = !DISubprogram(name: "sprintf", scope: !228, file: !228, line: 365, type: !344, flags: DIFlagPrototyped, spFlags: 0)
!344 = !DISubroutineType(types: !345)
!345 = !{!18, !160, !116, null}
!346 = !DIImportedEntity(tag: DW_TAG_imported_declaration, scope: !13, entity: !347, file: !225, line: 138)
!347 = !DISubprogram(name: "sscanf", linkageName: "__isoc23_sscanf", scope: !228, file: !228, line: 447, type: !348, flags: DIFlagPrototyped, spFlags: 0)
!348 = !DISubroutineType(types: !349)
!349 = !{!18, !116, !116, null}
!350 = !DIImportedEntity(tag: DW_TAG_imported_declaration, scope: !13, entity: !351, file: !225, line: 139)
!351 = !DISubprogram(name: "tmpfile", scope: !228, file: !228, line: 194, type: !352, flags: DIFlagPrototyped, spFlags: 0)
!352 = !DISubroutineType(types: !353)
!353 = !{!236}
!354 = !DIImportedEntity(tag: DW_TAG_imported_declaration, scope: !13, entity: !355, file: !225, line: 141)
!355 = !DISubprogram(name: "tmpnam", scope: !228, file: !228, line: 211, type: !356, flags: DIFlagPrototyped, spFlags: 0)
!356 = !DISubroutineType(types: !357)
!357 = !{!92, !92}
!358 = !DIImportedEntity(tag: DW_TAG_imported_declaration, scope: !13, entity: !359, file: !225, line: 143)
!359 = !DISubprogram(name: "ungetc", scope: !228, file: !228, line: 731, type: !270, flags: DIFlagPrototyped, spFlags: 0)
!360 = !DIImportedEntity(tag: DW_TAG_imported_declaration, scope: !13, entity: !361, file: !225, line: 144)
!361 = !DISubprogram(name: "vfprintf", scope: !228, file: !228, line: 372, type: !362, flags: DIFlagPrototyped, spFlags: 0)
!362 = !DISubroutineType(types: !363)
!363 = !{!18, !253, !116, !364}
!364 = !DIDerivedType(tag: DW_TAG_typedef, name: "__gnuc_va_list", file: !365, line: 12, baseType: !366)
!365 = !DIFile(filename: "/usr/lib/llvm-18/lib/clang/18/include/__stdarg___gnuc_va_list.h", directory: "", checksumkind: CSK_MD5, checksum: "edb3f2eab991638e4dc94f6e55e3530f")
!366 = !DIDerivedType(tag: DW_TAG_typedef, name: "__builtin_va_list", file: !2, baseType: !367)
!367 = !DICompositeType(tag: DW_TAG_structure_type, name: "__va_list", scope: !13, file: !2, size: 256, flags: DIFlagFwdDecl, identifier: "_ZTSSt9__va_list")
!368 = !DIImportedEntity(tag: DW_TAG_imported_declaration, scope: !13, entity: !369, file: !225, line: 145)
!369 = !DISubprogram(name: "vprintf", scope: !228, file: !228, line: 378, type: !370, flags: DIFlagPrototyped, spFlags: 0)
!370 = !DISubroutineType(types: !371)
!371 = !{!18, !116, !364}
!372 = !DIImportedEntity(tag: DW_TAG_imported_declaration, scope: !13, entity: !373, file: !225, line: 146)
!373 = !DISubprogram(name: "vsprintf", scope: !228, file: !228, line: 380, type: !374, flags: DIFlagPrototyped, spFlags: 0)
!374 = !DISubroutineType(types: !375)
!375 = !{!18, !160, !116, !364}
!376 = !DIImportedEntity(tag: DW_TAG_imported_declaration, scope: !169, entity: !377, file: !225, line: 175)
!377 = !DISubprogram(name: "snprintf", scope: !228, file: !228, line: 385, type: !378, flags: DIFlagPrototyped, spFlags: 0)
!378 = !DISubroutineType(types: !379)
!379 = !{!18, !160, !40, !116, null}
!380 = !DIImportedEntity(tag: DW_TAG_imported_declaration, scope: !169, entity: !381, file: !225, line: 176)
!381 = !DISubprogram(name: "vfscanf", linkageName: "__isoc23_vfscanf", scope: !228, file: !228, line: 511, type: !362, flags: DIFlagPrototyped, spFlags: 0)
!382 = !DIImportedEntity(tag: DW_TAG_imported_declaration, scope: !169, entity: !383, file: !225, line: 177)
!383 = !DISubprogram(name: "vscanf", linkageName: "__isoc23_vscanf", scope: !228, file: !228, line: 516, type: !370, flags: DIFlagPrototyped, spFlags: 0)
!384 = !DIImportedEntity(tag: DW_TAG_imported_declaration, scope: !169, entity: !385, file: !225, line: 178)
!385 = !DISubprogram(name: "vsnprintf", scope: !228, file: !228, line: 389, type: !386, flags: DIFlagPrototyped, spFlags: 0)
!386 = !DISubroutineType(types: !387)
!387 = !{!18, !160, !40, !116, !364}
!388 = !DIImportedEntity(tag: DW_TAG_imported_declaration, scope: !169, entity: !389, file: !225, line: 179)
!389 = !DISubprogram(name: "vsscanf", linkageName: "__isoc23_vsscanf", scope: !228, file: !228, line: 519, type: !390, flags: DIFlagPrototyped, spFlags: 0)
!390 = !DISubroutineType(types: !391)
!391 = !{!18, !116, !116, !364}
!392 = !DIImportedEntity(tag: DW_TAG_imported_declaration, scope: !13, entity: !377, file: !225, line: 185)
!393 = !DIImportedEntity(tag: DW_TAG_imported_declaration, scope: !13, entity: !381, file: !225, line: 186)
!394 = !DIImportedEntity(tag: DW_TAG_imported_declaration, scope: !13, entity: !383, file: !225, line: 187)
!395 = !DIImportedEntity(tag: DW_TAG_imported_declaration, scope: !13, entity: !385, file: !225, line: 188)
!396 = !DIImportedEntity(tag: DW_TAG_imported_declaration, scope: !13, entity: !389, file: !225, line: 189)
!397 = !{i32 7, !"Dwarf Version", i32 5}
!398 = !{i32 2, !"Debug Info Version", i32 3}
!399 = !{i32 1, !"wchar_size", i32 4}
!400 = !{i32 8, !"PIC Level", i32 2}
!401 = !{i32 7, !"PIE Level", i32 2}
!402 = !{i32 7, !"uwtable", i32 2}
!403 = !{i32 7, !"frame-pointer", i32 1}
!404 = !{!"Ubuntu clang version 18.1.3 (1ubuntu1)"}
!405 = distinct !DISubprogram(name: "run", linkageName: "_Z3runP8ExecutorPKc", scope: !2, file: !2, line: 24, type: !406, scopeLine: 24, flags: DIFlagPrototyped, spFlags: DISPFlagDefinition, unit: !8, retainedNodes: !421)
!406 = !DISubroutineType(types: !407)
!407 = !{null, !408, !55}
!408 = !DIDerivedType(tag: DW_TAG_pointer_type, baseType: !409, size: 64)
!409 = distinct !DICompositeType(tag: DW_TAG_class_type, name: "Executor", file: !2, line: 12, size: 64, flags: DIFlagTypePassByReference | DIFlagNonTrivial, elements: !410, vtableHolder: !409, identifier: "_ZTS8Executor")
!410 = !{!411, !414, !418}
!411 = !DIDerivedType(tag: DW_TAG_member, name: "_vptr$Executor", scope: !2, file: !2, baseType: !412, size: 64, flags: DIFlagArtificial)
!412 = !DIDerivedType(tag: DW_TAG_pointer_type, baseType: !413, size: 64)
!413 = !DIDerivedType(tag: DW_TAG_pointer_type, name: "__vtbl_ptr_type", baseType: !129, size: 64)
!414 = !DISubprogram(name: "exec", linkageName: "_ZN8Executor4execEPKc", scope: !409, file: !2, line: 14, type: !415, scopeLine: 14, containingType: !409, virtualIndex: 0, flags: DIFlagPublic | DIFlagPrototyped, spFlags: DISPFlagPureVirtual)
!415 = !DISubroutineType(types: !416)
!416 = !{null, !417, !55}
!417 = !DIDerivedType(tag: DW_TAG_pointer_type, baseType: !409, size: 64, flags: DIFlagArtificial | DIFlagObjectPointer)
!418 = !DISubprogram(name: "~Executor", scope: !409, file: !2, line: 15, type: !419, scopeLine: 15, containingType: !409, virtualIndex: 0, flags: DIFlagPublic | DIFlagPrototyped, spFlags: DISPFlagVirtual)
!419 = !DISubroutineType(types: !420)
!420 = !{null, !417}
!421 = !{}
!422 = !DILocalVariable(name: "e", arg: 1, scope: !405, file: !2, line: 24, type: !408)
!423 = !DILocation(line: 24, column: 20, scope: !405)
!424 = !DILocalVariable(name: "cmd", arg: 2, scope: !405, file: !2, line: 24, type: !55)
!425 = !DILocation(line: 24, column: 35, scope: !405)
!426 = !DILocation(line: 25, column: 5, scope: !405)
!427 = !DILocation(line: 25, column: 13, scope: !405)
!428 = !DILocation(line: 25, column: 8, scope: !405)
!429 = !DILocation(line: 26, column: 1, scope: !405)
!430 = distinct !DISubprogram(name: "main", scope: !2, file: !2, line: 28, type: !129, scopeLine: 28, flags: DIFlagPrototyped, spFlags: DISPFlagDefinition, unit: !8, retainedNodes: !421)
!431 = !DILocalVariable(name: "input", scope: !430, file: !2, line: 29, type: !55)
!432 = !DILocation(line: 29, column: 17, scope: !430)
!433 = !DILocation(line: 29, column: 25, scope: !430)
!434 = !DILocalVariable(name: "svc", scope: !430, file: !2, line: 30, type: !435)
!435 = distinct !DICompositeType(tag: DW_TAG_class_type, name: "Service", file: !2, line: 18, size: 128, flags: DIFlagTypePassByReference | DIFlagNonTrivial, elements: !436, vtableHolder: !438, identifier: "_ZTS7Service")
!436 = !{!437, !448, !449, !453}
!437 = !DIDerivedType(tag: DW_TAG_inheritance, scope: !435, baseType: !438, flags: DIFlagPublic, extraData: i32 0)
!438 = distinct !DICompositeType(tag: DW_TAG_class_type, name: "Logger", file: !2, line: 6, size: 64, flags: DIFlagTypePassByReference | DIFlagNonTrivial, elements: !439, vtableHolder: !438, identifier: "_ZTS6Logger")
!439 = !{!440, !441, !445}
!440 = !DIDerivedType(tag: DW_TAG_member, name: "_vptr$Logger", scope: !2, file: !2, baseType: !412, size: 64, flags: DIFlagArtificial)
!441 = !DISubprogram(name: "log", linkageName: "_ZN6Logger3logEPKc", scope: !438, file: !2, line: 8, type: !442, scopeLine: 8, containingType: !438, virtualIndex: 0, flags: DIFlagPublic | DIFlagPrototyped, spFlags: DISPFlagVirtual)
!442 = !DISubroutineType(types: !443)
!443 = !{null, !444, !55}
!444 = !DIDerivedType(tag: DW_TAG_pointer_type, baseType: !438, size: 64, flags: DIFlagArtificial | DIFlagObjectPointer)
!445 = !DISubprogram(name: "~Logger", scope: !438, file: !2, line: 9, type: !446, scopeLine: 9, containingType: !438, virtualIndex: 0, flags: DIFlagPublic | DIFlagPrototyped, spFlags: DISPFlagVirtual)
!446 = !DISubroutineType(types: !447)
!447 = !{null, !444}
!448 = !DIDerivedType(tag: DW_TAG_inheritance, scope: !435, baseType: !409, offset: 64, flags: DIFlagPublic, extraData: i32 0)
!449 = !DISubprogram(name: "log", linkageName: "_ZN7Service3logEPKc", scope: !435, file: !2, line: 20, type: !450, scopeLine: 20, containingType: !435, virtualIndex: 0, flags: DIFlagPublic | DIFlagPrototyped, spFlags: DISPFlagVirtual)
!450 = !DISubroutineType(types: !451)
!451 = !{null, !452, !55}
!452 = !DIDerivedType(tag: DW_TAG_pointer_type, baseType: !435, size: 64, flags: DIFlagArtificial | DIFlagObjectPointer)
!453 = !DISubprogram(name: "exec", linkageName: "_ZN7Service4execEPKc", scope: !435, file: !2, line: 21, type: !450, scopeLine: 21, containingType: !435, virtualIndex: 3, flags: DIFlagPublic | DIFlagPrototyped, spFlags: DISPFlagVirtual)
!454 = !DILocation(line: 30, column: 13, scope: !430)
!455 = !DILocation(line: 31, column: 9, scope: !430)
!456 = !DILocation(line: 31, column: 15, scope: !430)
!457 = !DILocation(line: 31, column: 5, scope: !430)
!458 = !DILocation(line: 32, column: 5, scope: !430)
!459 = !DILocation(line: 33, column: 1, scope: !430)
!460 = distinct !DISubprogram(name: "Service", linkageName: "_ZN7ServiceC2Ev", scope: !435, file: !2, line: 18, type: !461, scopeLine: 18, flags: DIFlagArtificial | DIFlagPrototyped, spFlags: DISPFlagDefinition, unit: !8, declaration: !463, retainedNodes: !421)
!461 = !DISubroutineType(types: !462)
!462 = !{null, !452}
!463 = !DISubprogram(name: "Service", scope: !435, type: !461, flags: DIFlagPublic | DIFlagArtificial | DIFlagPrototyped, spFlags: 0)
!464 = !DILocalVariable(name: "this", arg: 1, scope: !460, type: !465, flags: DIFlagArtificial | DIFlagObjectPointer)
!465 = !DIDerivedType(tag: DW_TAG_pointer_type, baseType: !435, size: 64)
!466 = !DILocation(line: 0, scope: !460)
!467 = !DILocation(line: 18, column: 7, scope: !460)
!468 = distinct !DISubprogram(name: "~Service", linkageName: "_ZN7ServiceD2Ev", scope: !435, file: !2, line: 18, type: !461, scopeLine: 18, flags: DIFlagArtificial | DIFlagPrototyped, spFlags: DISPFlagDefinition, unit: !8, declaration: !469, retainedNodes: !421)
!469 = !DISubprogram(name: "~Service", scope: !435, type: !461, containingType: !435, virtualIndex: 0, flags: DIFlagPublic | DIFlagArtificial | DIFlagPrototyped, spFlags: DISPFlagVirtual)
!470 = !DILocalVariable(name: "this", arg: 1, scope: !468, type: !465, flags: DIFlagArtificial | DIFlagObjectPointer)
!471 = !DILocation(line: 0, scope: !468)
!472 = !DILocation(line: 18, column: 7, scope: !473)
!473 = distinct !DILexicalBlock(scope: !468, file: !2, line: 18, column: 7)
!474 = !DILocation(line: 18, column: 7, scope: !468)
!475 = distinct !DISubprogram(name: "Logger", linkageName: "_ZN6LoggerC2Ev", scope: !438, file: !2, line: 6, type: !446, scopeLine: 6, flags: DIFlagArtificial | DIFlagPrototyped, spFlags: DISPFlagDefinition, unit: !8, declaration: !476, retainedNodes: !421)
!476 = !DISubprogram(name: "Logger", scope: !438, type: !446, flags: DIFlagPublic | DIFlagArtificial | DIFlagPrototyped, spFlags: 0)
!477 = !DILocalVariable(name: "this", arg: 1, scope: !475, type: !478, flags: DIFlagArtificial | DIFlagObjectPointer)
!478 = !DIDerivedType(tag: DW_TAG_pointer_type, baseType: !438, size: 64)
!479 = !DILocation(line: 0, scope: !475)
!480 = !DILocation(line: 6, column: 7, scope: !475)
!481 = distinct !DISubprogram(name: "Executor", linkageName: "_ZN8ExecutorC2Ev", scope: !409, file: !2, line: 12, type: !419, scopeLine: 12, flags: DIFlagArtificial | DIFlagPrototyped, spFlags: DISPFlagDefinition, unit: !8, declaration: !482, retainedNodes: !421)
!482 = !DISubprogram(name: "Executor", scope: !409, type: !419, flags: DIFlagPublic | DIFlagArtificial | DIFlagPrototyped, spFlags: 0)
!483 = !DILocalVariable(name: "this", arg: 1, scope: !481, type: !408, flags: DIFlagArtificial | DIFlagObjectPointer)
!484 = !DILocation(line: 0, scope: !481)
!485 = !DILocation(line: 12, column: 7, scope: !481)
!486 = distinct !DISubprogram(name: "log", linkageName: "_ZN7Service3logEPKc", scope: !435, file: !2, line: 20, type: !450, scopeLine: 20, flags: DIFlagPrototyped, spFlags: DISPFlagDefinition, unit: !8, declaration: !449, retainedNodes: !421)
!487 = !DILocalVariable(name: "this", arg: 1, scope: !486, type: !465, flags: DIFlagArtificial | DIFlagObjectPointer)
!488 = !DILocation(line: 0, scope: !486)
!489 = !DILocalVariable(name: "msg", arg: 2, scope: !486, file: !2, line: 20, type: !55)
!490 = !DILocation(line: 20, column: 26, scope: !486)
!491 = !DILocation(line: 20, column: 47, scope: !486)
!492 = !DILocation(line: 20, column: 42, scope: !486)
!493 = !DILocation(line: 20, column: 53, scope: !486)
!494 = distinct !DISubprogram(name: "~Service", linkageName: "_ZN7ServiceD0Ev", scope: !435, file: !2, line: 18, type: !461, scopeLine: 18, flags: DIFlagArtificial | DIFlagPrototyped, spFlags: DISPFlagDefinition, unit: !8, declaration: !469, retainedNodes: !421)
!495 = !DILocalVariable(name: "this", arg: 1, scope: !494, type: !465, flags: DIFlagArtificial | DIFlagObjectPointer)
!496 = !DILocation(line: 0, scope: !494)
!497 = !DILocation(line: 18, column: 7, scope: !494)
!498 = distinct !DISubprogram(name: "exec", linkageName: "_ZN7Service4execEPKc", scope: !435, file: !2, line: 21, type: !450, scopeLine: 21, flags: DIFlagPrototyped, spFlags: DISPFlagDefinition, unit: !8, declaration: !453, retainedNodes: !421)
!499 = !DILocalVariable(name: "this", arg: 1, scope: !498, type: !465, flags: DIFlagArtificial | DIFlagObjectPointer)
!500 = !DILocation(line: 0, scope: !498)
!501 = !DILocalVariable(name: "cmd", arg: 2, scope: !498, file: !2, line: 21, type: !55)
!502 = !DILocation(line: 21, column: 27, scope: !498)
!503 = !DILocation(line: 21, column: 50, scope: !498)
!504 = !DILocation(line: 21, column: 43, scope: !498)
!505 = !DILocation(line: 21, column: 56, scope: !498)
!506 = distinct !DISubprogram(linkageName: "_ZThn8_N7Service4execEPKc", scope: !2, file: !2, line: 21, type: !507, flags: DIFlagArtificial | DIFlagThunk, spFlags: DISPFlagDefinition, unit: !8)
!507 = !DISubroutineType(types: !421)
!508 = !DILocation(line: 0, scope: !506)
!509 = distinct !DISubprogram(linkageName: "_ZThn8_N7ServiceD1Ev", scope: !2, file: !2, line: 18, type: !507, flags: DIFlagArtificial | DIFlagThunk, spFlags: DISPFlagDefinition, unit: !8)
!510 = !DILocation(line: 0, scope: !509)
!511 = distinct !DISubprogram(linkageName: "_ZThn8_N7ServiceD0Ev", scope: !2, file: !2, line: 18, type: !507, flags: DIFlagArtificial | DIFlagThunk, spFlags: DISPFlagDefinition, unit: !8)
!512 = !DILocation(line: 0, scope: !511)
!513 = distinct !DISubprogram(name: "log", linkageName: "_ZN6Logger3logEPKc", scope: !438, file: !2, line: 8, type: !442, scopeLine: 8, flags: DIFlagPrototyped, spFlags: DISPFlagDefinition, unit: !8, declaration: !441, retainedNodes: !421)
!514 = !DILocalVariable(name: "this", arg: 1, scope: !513, type: !478, flags: DIFlagArtificial | DIFlagObjectPointer)
!515 = !DILocation(line: 0, scope: !513)
!516 = !DILocalVariable(name: "msg", arg: 2, scope: !513, file: !2, line: 8, type: !55)
!517 = !DILocation(line: 8, column: 34, scope: !513)
!518 = !DILocation(line: 8, column: 46, scope: !513)
!519 = !DILocation(line: 8, column: 41, scope: !513)
!520 = !DILocation(line: 8, column: 52, scope: !513)
!521 = distinct !DISubprogram(name: "~Logger", linkageName: "_ZN6LoggerD2Ev", scope: !438, file: !2, line: 9, type: !446, scopeLine: 9, flags: DIFlagPrototyped, spFlags: DISPFlagDefinition, unit: !8, declaration: !445, retainedNodes: !421)
!522 = !DILocalVariable(name: "this", arg: 1, scope: !521, type: !478, flags: DIFlagArtificial | DIFlagObjectPointer)
!523 = !DILocation(line: 0, scope: !521)
!524 = !DILocation(line: 9, column: 31, scope: !521)
!525 = distinct !DISubprogram(name: "~Logger", linkageName: "_ZN6LoggerD0Ev", scope: !438, file: !2, line: 9, type: !446, scopeLine: 9, flags: DIFlagPrototyped, spFlags: DISPFlagDefinition, unit: !8, declaration: !445, retainedNodes: !421)
!526 = !DILocalVariable(name: "this", arg: 1, scope: !525, type: !478, flags: DIFlagArtificial | DIFlagObjectPointer)
!527 = !DILocation(line: 0, scope: !525)
!528 = !DILocation(line: 9, column: 31, scope: !525)
!529 = distinct !DISubprogram(name: "~Executor", linkageName: "_ZN8ExecutorD2Ev", scope: !409, file: !2, line: 15, type: !419, scopeLine: 15, flags: DIFlagPrototyped, spFlags: DISPFlagDefinition, unit: !8, declaration: !418, retainedNodes: !421)
!530 = !DILocalVariable(name: "this", arg: 1, scope: !529, type: !408, flags: DIFlagArtificial | DIFlagObjectPointer)
!531 = !DILocation(line: 0, scope: !529)
!532 = !DILocation(line: 15, column: 33, scope: !529)
!533 = distinct !DISubprogram(name: "~Executor", linkageName: "_ZN8ExecutorD0Ev", scope: !409, file: !2, line: 15, type: !419, scopeLine: 15, flags: DIFlagPrototyped, spFlags: DISPFlagDefinition, unit: !8, declaration: !418, retainedNodes: !421)
!534 = !DILocalVariable(name: "this", arg: 1, scope: !533, type: !408, flags: DIFlagArtificial | DIFlagObjectPointer)
!535 = !DILocation(line: 0, scope: !533)
!536 = !DILocation(line: 15, column: 33, scope: !533)
