; ModuleID = 'ifds_rust_ffi_taint.e2ae002f0d59a7a5-cgu.0'
source_filename = "ifds_rust_ffi_taint.e2ae002f0d59a7a5-cgu.0"
target datalayout = "e-m:e-i8:8:32-i16:16:32-i64:64-i128:128-n32:64-S128-Fn32"
target triple = "aarch64-unknown-linux-gnu"

@vtable.0 = private unnamed_addr constant <{ [24 x i8], ptr, ptr, ptr }> <{ [24 x i8] c"\00\00\00\00\00\00\00\00\08\00\00\00\00\00\00\00\08\00\00\00\00\00\00\00", ptr @"_ZN4core3ops8function6FnOnce40call_once$u7b$$u7b$vtable.shim$u7d$$u7d$17h09e1c9c3d20e50eaE", ptr @"_ZN3std2rt10lang_start28_$u7b$$u7b$closure$u7d$$u7d$17hd389834563b9cc00E", ptr @"_ZN3std2rt10lang_start28_$u7b$$u7b$closure$u7d$$u7d$17hd389834563b9cc00E" }>, align 8
@alloc_4eb0e9ed9c44f3ac48029dff40b33b97 = private unnamed_addr constant <{ [9 x i8] }> <{ [9 x i8] c"USER_CMD\00" }>, align 1

; std::rt::lang_start
; Function Attrs: uwtable
define hidden i64 @_ZN3std2rt10lang_start17h46ae87599f653985E(ptr %main, i64 %argc, ptr %argv, i8 %sigpipe) unnamed_addr #0 {
start:
  %_8 = alloca [8 x i8], align 8
  %_5 = alloca [8 x i8], align 8
  store ptr %main, ptr %_8, align 8
; call std::rt::lang_start_internal
  %0 = call i64 @_ZN3std2rt19lang_start_internal17he1ad9a314bd0157aE(ptr align 1 %_8, ptr align 8 @vtable.0, i64 %argc, ptr %argv, i8 %sigpipe)
  store i64 %0, ptr %_5, align 8
  %v = load i64, ptr %_5, align 8
  ret i64 %v
}

; std::rt::lang_start::{{closure}}
; Function Attrs: inlinehint uwtable
define internal i32 @"_ZN3std2rt10lang_start28_$u7b$$u7b$closure$u7d$$u7d$17hd389834563b9cc00E"(ptr align 8 %_1) unnamed_addr #1 {
start:
  %_4 = load ptr, ptr %_1, align 8
; call std::sys::backtrace::__rust_begin_short_backtrace
  call void @_ZN3std3sys9backtrace28__rust_begin_short_backtrace17h762c81997654dca7E(ptr %_4)
; call <() as std::process::Termination>::report
  %self = call i8 @"_ZN54_$LT$$LP$$RP$$u20$as$u20$std..process..Termination$GT$6report17h887f720aff893f93E"()
  %_0 = zext i8 %self to i32
  ret i32 %_0
}

; std::sys::backtrace::__rust_begin_short_backtrace
; Function Attrs: noinline uwtable
define internal void @_ZN3std3sys9backtrace28__rust_begin_short_backtrace17h762c81997654dca7E(ptr %f) unnamed_addr #2 {
start:
; call core::ops::function::FnOnce::call_once
  call void @_ZN4core3ops8function6FnOnce9call_once17h24232b8b1c97a1b1E(ptr %f)
  call void asm sideeffect "", "~{memory}"(), !srcloc !3
  ret void
}

; core::ops::function::FnOnce::call_once{{vtable.shim}}
; Function Attrs: inlinehint uwtable
define internal i32 @"_ZN4core3ops8function6FnOnce40call_once$u7b$$u7b$vtable.shim$u7d$$u7d$17h09e1c9c3d20e50eaE"(ptr %_1) unnamed_addr #1 {
start:
  %_2 = alloca [0 x i8], align 1
  %0 = load ptr, ptr %_1, align 8
; call core::ops::function::FnOnce::call_once
  %_0 = call i32 @_ZN4core3ops8function6FnOnce9call_once17h76e3e5bce69a8015E(ptr %0)
  ret i32 %_0
}

; core::ops::function::FnOnce::call_once
; Function Attrs: inlinehint uwtable
define internal void @_ZN4core3ops8function6FnOnce9call_once17h24232b8b1c97a1b1E(ptr %_1) unnamed_addr #1 {
start:
  %_2 = alloca [0 x i8], align 1
  call void %_1()
  ret void
}

; core::ops::function::FnOnce::call_once
; Function Attrs: inlinehint uwtable
define internal i32 @_ZN4core3ops8function6FnOnce9call_once17h76e3e5bce69a8015E(ptr %0) unnamed_addr #1 personality ptr @rust_eh_personality {
start:
  %1 = alloca [16 x i8], align 8
  %_2 = alloca [0 x i8], align 1
  %_1 = alloca [8 x i8], align 8
  store ptr %0, ptr %_1, align 8
; invoke std::rt::lang_start::{{closure}}
  %_0 = invoke i32 @"_ZN3std2rt10lang_start28_$u7b$$u7b$closure$u7d$$u7d$17hd389834563b9cc00E"(ptr align 8 %_1)
          to label %bb1 unwind label %cleanup

bb3:                                              ; preds = %cleanup
  %2 = load ptr, ptr %1, align 8
  %3 = getelementptr inbounds i8, ptr %1, i64 8
  %4 = load i32, ptr %3, align 8
  %5 = insertvalue { ptr, i32 } poison, ptr %2, 0
  %6 = insertvalue { ptr, i32 } %5, i32 %4, 1
  resume { ptr, i32 } %6

cleanup:                                          ; preds = %start
  %7 = landingpad { ptr, i32 }
          cleanup
  %8 = extractvalue { ptr, i32 } %7, 0
  %9 = extractvalue { ptr, i32 } %7, 1
  store ptr %8, ptr %1, align 8
  %10 = getelementptr inbounds i8, ptr %1, i64 8
  store i32 %9, ptr %10, align 8
  br label %bb3

bb1:                                              ; preds = %start
  ret i32 %_0
}

; core::ptr::drop_in_place<std::rt::lang_start<()>::{{closure}}>
; Function Attrs: inlinehint uwtable
define internal void @"_ZN4core3ptr85drop_in_place$LT$std..rt..lang_start$LT$$LP$$RP$$GT$..$u7b$$u7b$closure$u7d$$u7d$$GT$17h2570263ea832e7a8E"(ptr align 8 %_1) unnamed_addr #1 {
start:
  ret void
}

; <() as std::process::Termination>::report
; Function Attrs: inlinehint uwtable
define internal i8 @"_ZN54_$LT$$LP$$RP$$u20$as$u20$std..process..Termination$GT$6report17h887f720aff893f93E"() unnamed_addr #1 {
start:
  ret i8 0
}

; ifds_rust_ffi_taint::transform
; Function Attrs: uwtable
define internal ptr @_ZN19ifds_rust_ffi_taint9transform17h43548a75eace3b87E(ptr %input) unnamed_addr #0 {
start:
  ret ptr %input
}

; ifds_rust_ffi_taint::main
; Function Attrs: uwtable
define internal void @_ZN19ifds_rust_ffi_taint4main17he5549dcf50257328E() unnamed_addr #0 {
start:
  %env = call ptr @getenv(ptr @alloc_4eb0e9ed9c44f3ac48029dff40b33b97) #5
; call ifds_rust_ffi_taint::transform
  %processed = call ptr @_ZN19ifds_rust_ffi_taint9transform17h43548a75eace3b87E(ptr %env)
  %_7 = call i32 @system(ptr %processed) #5
  ret void
}

; std::rt::lang_start_internal
; Function Attrs: uwtable
declare i64 @_ZN3std2rt19lang_start_internal17he1ad9a314bd0157aE(ptr align 1, ptr align 8, i64, ptr, i8) unnamed_addr #0

; Function Attrs: nounwind uwtable
declare i32 @rust_eh_personality(i32, i32, i64, ptr, ptr) unnamed_addr #3

; Function Attrs: nounwind uwtable
declare ptr @getenv(ptr) unnamed_addr #3

; Function Attrs: nounwind uwtable
declare i32 @system(ptr) unnamed_addr #3

define i32 @main(i32 %0, ptr %1) unnamed_addr #4 {
top:
  %2 = sext i32 %0 to i64
; call std::rt::lang_start
  %3 = call i64 @_ZN3std2rt10lang_start17h46ae87599f653985E(ptr @_ZN19ifds_rust_ffi_taint4main17he5549dcf50257328E, i64 %2, ptr %1, i8 0)
  %4 = trunc i64 %3 to i32
  ret i32 %4
}

attributes #0 = { uwtable "probe-stack"="inline-asm" "target-cpu"="generic" "target-features"="+v8a,+outline-atomics" }
attributes #1 = { inlinehint uwtable "probe-stack"="inline-asm" "target-cpu"="generic" "target-features"="+v8a,+outline-atomics" }
attributes #2 = { noinline uwtable "probe-stack"="inline-asm" "target-cpu"="generic" "target-features"="+v8a,+outline-atomics" }
attributes #3 = { nounwind uwtable "probe-stack"="inline-asm" "target-cpu"="generic" "target-features"="+v8a,+outline-atomics" }
attributes #4 = { "target-cpu"="generic" }
attributes #5 = { nounwind }

!llvm.module.flags = !{!0, !1}
!llvm.ident = !{!2}

!0 = !{i32 8, !"PIC Level", i32 2}
!1 = !{i32 7, !"PIE Level", i32 2}
!2 = !{!"rustc version 1.85.0 (4d91de4e4 2025-02-17)"}
!3 = !{i64 6796519459530051}
