; ModuleID = 'mssa_integration.b64bd6759df22bbf-cgu.0'
source_filename = "mssa_integration.b64bd6759df22bbf-cgu.0"
target datalayout = "e-m:e-i8:8:32-i16:16:32-i64:64-i128:128-n32:64-S128-Fn32"
target triple = "aarch64-unknown-linux-gnu"

@vtable.0 = private unnamed_addr constant <{ [24 x i8], ptr, ptr, ptr }> <{ [24 x i8] c"\00\00\00\00\00\00\00\00\08\00\00\00\00\00\00\00\08\00\00\00\00\00\00\00", ptr @"_ZN4core3ops8function6FnOnce40call_once$u7b$$u7b$vtable.shim$u7d$$u7d$17h5420dc6aa50e0d3aE", ptr @"_ZN3std2rt10lang_start28_$u7b$$u7b$closure$u7d$$u7d$17h0296317e5779acfeE", ptr @"_ZN3std2rt10lang_start28_$u7b$$u7b$closure$u7d$$u7d$17h0296317e5779acfeE" }>, align 8
@0 = private unnamed_addr constant <{ [4 x i8], [4 x i8] }> <{ [4 x i8] zeroinitializer, [4 x i8] undef }>, align 4
@alloc_1eb6f53a157dccb32488e066ad957e6d = private unnamed_addr constant <{ [82 x i8] }> <{ [82 x i8] c"unsafe precondition(s) violated: hint::unreachable_unchecked must never be reached" }>, align 1
@alloc_8556901e78438e20b8c59ddc57243899 = private unnamed_addr constant <{ [19 x i8] }> <{ [19 x i8] c"mssa_integration.rs" }>, align 1
@alloc_9827a563701d5d18c5c686061b80577b = private unnamed_addr constant <{ ptr, [16 x i8] }> <{ ptr @alloc_8556901e78438e20b8c59ddc57243899, [16 x i8] c"\13\00\00\00\00\00\00\00\0F\00\00\00\05\00\00\00" }>, align 8
@alloc_38474ef9db17481aceecf916bca7c81d = private unnamed_addr constant <{ ptr, [16 x i8] }> <{ ptr @alloc_8556901e78438e20b8c59ddc57243899, [16 x i8] c"\13\00\00\00\00\00\00\00\10\00\00\00\0D\00\00\00" }>, align 8
@alloc_e83ba521c27f9e2ad43237bf36ab5c52 = private unnamed_addr constant <{ ptr, [16 x i8] }> <{ ptr @alloc_8556901e78438e20b8c59ddc57243899, [16 x i8] c"\13\00\00\00\00\00\00\00\1A\00\00\00\05\00\00\00" }>, align 8
@alloc_0ff898d67f718c4ced42f72472118825 = private unnamed_addr constant <{ ptr, [16 x i8] }> <{ ptr @alloc_8556901e78438e20b8c59ddc57243899, [16 x i8] c"\13\00\00\00\00\00\00\00\1B\00\00\00\05\00\00\00" }>, align 8
@alloc_0bdce5fca1299388310de4da1a82cbd6 = private unnamed_addr constant <{ ptr, [16 x i8] }> <{ ptr @alloc_8556901e78438e20b8c59ddc57243899, [16 x i8] c"\13\00\00\00\00\00\00\00\1C\00\00\00\05\00\00\00" }>, align 8
@alloc_51a8e792acc6ee210fed95af31ec98a8 = private unnamed_addr constant <{ ptr, [16 x i8] }> <{ ptr @alloc_8556901e78438e20b8c59ddc57243899, [16 x i8] c"\13\00\00\00\00\00\00\00\1E\00\00\00\0D\00\00\00" }>, align 8
@alloc_3fa745afc8bf09980b42591d247df686 = private unnamed_addr constant <{ ptr, [16 x i8] }> <{ ptr @alloc_8556901e78438e20b8c59ddc57243899, [16 x i8] c"\13\00\00\00\00\00\00\00)\00\00\00\05\00\00\00" }>, align 8
@alloc_635f2d9d5fd811182e5898378d508194 = private unnamed_addr constant <{ ptr, [16 x i8] }> <{ ptr @alloc_8556901e78438e20b8c59ddc57243899, [16 x i8] c"\13\00\00\00\00\00\00\00*\00\00\00\05\00\00\00" }>, align 8
@alloc_4401a7b31c5d4f5267a83778c9213cac = private unnamed_addr constant <{ ptr, [16 x i8] }> <{ ptr @alloc_8556901e78438e20b8c59ddc57243899, [16 x i8] c"\13\00\00\00\00\00\00\00,\00\00\00\0E\00\00\00" }>, align 8
@alloc_fd42f31ffce0ba9a10e4d1dec62ed2af = private unnamed_addr constant <{ ptr, [16 x i8] }> <{ ptr @alloc_8556901e78438e20b8c59ddc57243899, [16 x i8] c"\13\00\00\00\00\00\00\00-\00\00\00\0E\00\00\00" }>, align 8
@alloc_02b63e765e8886a76c6f0bd93d754874 = private unnamed_addr constant <{ ptr, [16 x i8] }> <{ ptr @alloc_8556901e78438e20b8c59ddc57243899, [16 x i8] c"\13\00\00\00\00\00\00\00;\00\00\00\09\00\00\00" }>, align 8
@alloc_8d98b83ee87ff1ab11c0782cd5eab5e6 = private unnamed_addr constant <{ ptr, [16 x i8] }> <{ ptr @alloc_8556901e78438e20b8c59ddc57243899, [16 x i8] c"\13\00\00\00\00\00\00\009\00\00\00\09\00\00\00" }>, align 8
@alloc_3d2d339dab3f1c110c51dac244db5b73 = private unnamed_addr constant <{ ptr, [16 x i8] }> <{ ptr @alloc_8556901e78438e20b8c59ddc57243899, [16 x i8] c"\13\00\00\00\00\00\00\00?\00\00\00\0D\00\00\00" }>, align 8
@alloc_8c119ea8ecdcc67fd49851a49ea68597 = private unnamed_addr constant <{ ptr, [16 x i8] }> <{ ptr @alloc_8556901e78438e20b8c59ddc57243899, [16 x i8] c"\13\00\00\00\00\00\00\00L\00\00\00\0D\00\00\00" }>, align 8
@alloc_024ce418cce1be3894ac1bafbcadd0a1 = private unnamed_addr constant <{ ptr, [16 x i8] }> <{ ptr @alloc_8556901e78438e20b8c59ddc57243899, [16 x i8] c"\13\00\00\00\00\00\00\00I\00\00\00\0E\00\00\00" }>, align 8
@alloc_4eaab3ca0808d39e68125b514067d612 = private unnamed_addr constant <{ ptr, [16 x i8] }> <{ ptr @alloc_8556901e78438e20b8c59ddc57243899, [16 x i8] c"\13\00\00\00\00\00\00\00I\00\00\00\09\00\00\00" }>, align 8
@alloc_8bb00950464488bd5a6bd826ab5d0f16 = private unnamed_addr constant <{ ptr, [16 x i8] }> <{ ptr @alloc_8556901e78438e20b8c59ddc57243899, [16 x i8] c"\13\00\00\00\00\00\00\00U\00\00\00\05\00\00\00" }>, align 8
@alloc_33c3b324516810f5d5dce7553edb36ba = private unnamed_addr constant <{ ptr, [16 x i8] }> <{ ptr @alloc_8556901e78438e20b8c59ddc57243899, [16 x i8] c"\13\00\00\00\00\00\00\00V\00\00\00\05\00\00\00" }>, align 8
@alloc_c275870330e57786c3df3622478048f9 = private unnamed_addr constant <{ ptr, [16 x i8] }> <{ ptr @alloc_8556901e78438e20b8c59ddc57243899, [16 x i8] c"\13\00\00\00\00\00\00\00X\00\00\00\0E\00\00\00" }>, align 8
@alloc_14ac2ee2a37d94d03ba5ba7582329b69 = private unnamed_addr constant <{ ptr, [16 x i8] }> <{ ptr @alloc_8556901e78438e20b8c59ddc57243899, [16 x i8] c"\13\00\00\00\00\00\00\00Y\00\00\00\0E\00\00\00" }>, align 8

; std::rt::lang_start
; Function Attrs: uwtable
define hidden i64 @_ZN3std2rt10lang_start17h1807a72508d8caeaE(ptr %main, i64 %argc, ptr %argv, i8 %sigpipe) unnamed_addr #0 {
start:
  %_8 = alloca [8 x i8], align 8
  %_5 = alloca [8 x i8], align 8
  store ptr %main, ptr %_8, align 8
; call std::rt::lang_start_internal
  %0 = call i64 @_ZN3std2rt19lang_start_internal17he1ad9a314bd0157aE(ptr align 1 %_8, ptr align 8 @vtable.0, i64 %argc, ptr %argv, i8 %sigpipe)
  store i64 %0, ptr %_5, align 8
  %v = load i64, ptr %_5, align 8
  ret i64 %v
}

; std::rt::lang_start::{{closure}}
; Function Attrs: inlinehint uwtable
define internal i32 @"_ZN3std2rt10lang_start28_$u7b$$u7b$closure$u7d$$u7d$17h0296317e5779acfeE"(ptr align 8 %_1) unnamed_addr #1 {
start:
  %_4 = load ptr, ptr %_1, align 8
; call std::sys::backtrace::__rust_begin_short_backtrace
  call void @_ZN3std3sys9backtrace28__rust_begin_short_backtrace17hb47073a948814c89E(ptr %_4)
; call <() as std::process::Termination>::report
  %self = call i8 @"_ZN54_$LT$$LP$$RP$$u20$as$u20$std..process..Termination$GT$6report17h506964b80de8847cE"()
  %_0 = zext i8 %self to i32
  ret i32 %_0
}

; std::sys::backtrace::__rust_begin_short_backtrace
; Function Attrs: noinline uwtable
define internal void @_ZN3std3sys9backtrace28__rust_begin_short_backtrace17hb47073a948814c89E(ptr %f) unnamed_addr #2 {
start:
; call core::ops::function::FnOnce::call_once
  call void @_ZN4core3ops8function6FnOnce9call_once17h7842d97fe852eb90E(ptr %f)
  call void asm sideeffect "", "~{memory}"(), !srcloc !3
  ret void
}

; <i32 as core::iter::range::Step>::forward_unchecked
; Function Attrs: inlinehint uwtable
define internal i32 @"_ZN47_$LT$i32$u20$as$u20$core..iter..range..Step$GT$17forward_unchecked17hae7d55d825c58e69E"(i32 %start1, i64 %n) unnamed_addr #1 {
start:
  %self = alloca [8 x i8], align 4
  %rhs = trunc i64 %n to i32
  %0 = call { i32, i1 } @llvm.sadd.with.overflow.i32(i32 %start1, i32 %rhs)
  %_10.0 = extractvalue { i32, i1 } %0, 0
  %_10.1 = extractvalue { i32, i1 } %0, 1
  %_7 = icmp slt i32 %rhs, 0
  %b = xor i1 %_10.1, %_7
  br i1 %b, label %bb1, label %bb3

bb3:                                              ; preds = %start
  %1 = getelementptr inbounds i8, ptr %self, i64 4
  store i32 %_10.0, ptr %1, align 4
  store i32 1, ptr %self, align 4
  %2 = getelementptr inbounds i8, ptr %self, i64 4
  %val = load i32, ptr %2, align 4
  ret i32 %val

bb1:                                              ; preds = %start
  %3 = load i32, ptr @0, align 4
  %4 = load i32, ptr getelementptr inbounds (i8, ptr @0, i64 4), align 4
  store i32 %3, ptr %self, align 4
  %5 = getelementptr inbounds i8, ptr %self, i64 4
  store i32 %4, ptr %5, align 4
; call core::hint::unreachable_unchecked::precondition_check
  call void @_ZN4core4hint21unreachable_unchecked18precondition_check17h5b3e8c3ed9d8fa07E() #12
  unreachable
}

; core::intrinsics::cold_path
; Function Attrs: cold nounwind uwtable
define internal void @_ZN4core10intrinsics9cold_path17h0ae9d552a041ceb9E() unnamed_addr #3 {
start:
  ret void
}

; core::ops::function::FnOnce::call_once{{vtable.shim}}
; Function Attrs: inlinehint uwtable
define internal i32 @"_ZN4core3ops8function6FnOnce40call_once$u7b$$u7b$vtable.shim$u7d$$u7d$17h5420dc6aa50e0d3aE"(ptr %_1) unnamed_addr #1 {
start:
  %_2 = alloca [0 x i8], align 1
  %0 = load ptr, ptr %_1, align 8
; call core::ops::function::FnOnce::call_once
  %_0 = call i32 @_ZN4core3ops8function6FnOnce9call_once17hbfb14e99e300bb17E(ptr %0)
  ret i32 %_0
}

; core::ops::function::FnOnce::call_once
; Function Attrs: inlinehint uwtable
define internal void @_ZN4core3ops8function6FnOnce9call_once17h7842d97fe852eb90E(ptr %_1) unnamed_addr #1 {
start:
  %_2 = alloca [0 x i8], align 1
  call void %_1()
  ret void
}

; core::ops::function::FnOnce::call_once
; Function Attrs: inlinehint uwtable
define internal i32 @_ZN4core3ops8function6FnOnce9call_once17hbfb14e99e300bb17E(ptr %0) unnamed_addr #1 personality ptr @rust_eh_personality {
start:
  %1 = alloca [16 x i8], align 8
  %_2 = alloca [0 x i8], align 1
  %_1 = alloca [8 x i8], align 8
  store ptr %0, ptr %_1, align 8
; invoke std::rt::lang_start::{{closure}}
  %_0 = invoke i32 @"_ZN3std2rt10lang_start28_$u7b$$u7b$closure$u7d$$u7d$17h0296317e5779acfeE"(ptr align 8 %_1)
          to label %bb1 unwind label %cleanup

bb3:                                              ; preds = %cleanup
  %2 = load ptr, ptr %1, align 8
  %3 = getelementptr inbounds i8, ptr %1, i64 8
  %4 = load i32, ptr %3, align 8
  %5 = insertvalue { ptr, i32 } poison, ptr %2, 0
  %6 = insertvalue { ptr, i32 } %5, i32 %4, 1
  resume { ptr, i32 } %6

cleanup:                                          ; preds = %start
  %7 = landingpad { ptr, i32 }
          cleanup
  %8 = extractvalue { ptr, i32 } %7, 0
  %9 = extractvalue { ptr, i32 } %7, 1
  store ptr %8, ptr %1, align 8
  %10 = getelementptr inbounds i8, ptr %1, i64 8
  store i32 %9, ptr %10, align 8
  br label %bb3

bb1:                                              ; preds = %start
  ret i32 %_0
}

; core::ptr::drop_in_place<std::rt::lang_start<()>::{{closure}}>
; Function Attrs: inlinehint uwtable
define internal void @"_ZN4core3ptr85drop_in_place$LT$std..rt..lang_start$LT$$LP$$RP$$GT$..$u7b$$u7b$closure$u7d$$u7d$$GT$17hae0044fabc3d5b81E"(ptr align 8 %_1) unnamed_addr #1 {
start:
  ret void
}

; core::hint::unreachable_unchecked::precondition_check
; Function Attrs: inlinehint nounwind uwtable
define internal void @_ZN4core4hint21unreachable_unchecked18precondition_check17h5b3e8c3ed9d8fa07E() unnamed_addr #4 {
start:
; call core::panicking::panic_nounwind
  call void @_ZN4core9panicking14panic_nounwind17h9be992513d3fde16E(ptr align 1 @alloc_1eb6f53a157dccb32488e066ad957e6d, i64 82) #13
  unreachable
}

; core::iter::range::<impl core::iter::traits::iterator::Iterator for core::ops::range::Range<A>>::next
; Function Attrs: inlinehint uwtable
define internal { i32, i32 } @"_ZN4core4iter5range101_$LT$impl$u20$core..iter..traits..iterator..Iterator$u20$for$u20$core..ops..range..Range$LT$A$GT$$GT$4next17hb4c4cae1779fe99cE"(ptr align 4 %self) unnamed_addr #1 {
start:
; call <core::ops::range::Range<T> as core::iter::range::RangeIteratorImpl>::spec_next
  %0 = call { i32, i32 } @"_ZN89_$LT$core..ops..range..Range$LT$T$GT$$u20$as$u20$core..iter..range..RangeIteratorImpl$GT$9spec_next17h3fe6b31a01f67570E"(ptr align 4 %self)
  %_0.0 = extractvalue { i32, i32 } %0, 0
  %_0.1 = extractvalue { i32, i32 } %0, 1
  %1 = insertvalue { i32, i32 } poison, i32 %_0.0, 0
  %2 = insertvalue { i32, i32 } %1, i32 %_0.1, 1
  ret { i32, i32 } %2
}

; <() as std::process::Termination>::report
; Function Attrs: inlinehint uwtable
define internal i8 @"_ZN54_$LT$$LP$$RP$$u20$as$u20$std..process..Termination$GT$6report17h506964b80de8847cE"() unnamed_addr #1 {
start:
  ret i8 0
}

; <I as core::iter::traits::collect::IntoIterator>::into_iter
; Function Attrs: inlinehint uwtable
define internal { i32, i32 } @"_ZN63_$LT$I$u20$as$u20$core..iter..traits..collect..IntoIterator$GT$9into_iter17h773c5d04e490fe31E"(i32 %self.0, i32 %self.1) unnamed_addr #1 {
start:
  %0 = insertvalue { i32, i32 } poison, i32 %self.0, 0
  %1 = insertvalue { i32, i32 } %0, i32 %self.1, 1
  ret { i32, i32 } %1
}

; <core::ops::range::Range<T> as core::iter::range::RangeIteratorImpl>::spec_next
; Function Attrs: inlinehint uwtable
define internal { i32, i32 } @"_ZN89_$LT$core..ops..range..Range$LT$T$GT$$u20$as$u20$core..iter..range..RangeIteratorImpl$GT$9spec_next17h3fe6b31a01f67570E"(ptr align 4 %self) unnamed_addr #1 {
start:
  %_0 = alloca [8 x i8], align 4
  %_4 = getelementptr inbounds i8, ptr %self, i64 4
  %_3.i = load i32, ptr %self, align 4
  %_4.i = load i32, ptr %_4, align 4
  %_0.i = icmp slt i32 %_3.i, %_4.i
  br i1 %_0.i, label %bb2, label %bb4

bb4:                                              ; preds = %start
  store i32 0, ptr %_0, align 4
  br label %bb5

bb2:                                              ; preds = %start
  %old = load i32, ptr %self, align 4
; call <i32 as core::iter::range::Step>::forward_unchecked
  %_6 = call i32 @"_ZN47_$LT$i32$u20$as$u20$core..iter..range..Step$GT$17forward_unchecked17hae7d55d825c58e69E"(i32 %old, i64 1)
  store i32 %_6, ptr %self, align 4
  %0 = getelementptr inbounds i8, ptr %_0, i64 4
  store i32 %old, ptr %0, align 4
  store i32 1, ptr %_0, align 4
  br label %bb5

bb5:                                              ; preds = %bb2, %bb4
  %1 = load i32, ptr %_0, align 4
  %2 = getelementptr inbounds i8, ptr %_0, i64 4
  %3 = load i32, ptr %2, align 4
  %4 = insertvalue { i32, i32 } poison, i32 %1, 0
  %5 = insertvalue { i32, i32 } %4, i32 %3, 1
  ret { i32, i32 } %5
}

; mssa_integration::simple_store_load
; Function Attrs: uwtable
define internal void @_ZN16mssa_integration17simple_store_load17h9c876f468b987033E() unnamed_addr #0 {
start:
  %x = alloca [4 x i8], align 4
  store i32 0, ptr %x, align 4
  %_13 = ptrtoint ptr %x to i64
  %_16 = and i64 %_13, 3
  %_17 = icmp eq i64 %_16, 0
  br i1 %_17, label %bb3, label %panic

bb3:                                              ; preds = %start
  store i32 42, ptr %x, align 4
  %_7 = ptrtoint ptr %x to i64
  %_10 = and i64 %_7, 3
  %_11 = icmp eq i64 %_10, 0
  br i1 %_11, label %bb2, label %panic1

panic:                                            ; preds = %start
; call core::panicking::panic_misaligned_pointer_dereference
  call void @_ZN4core9panicking36panic_misaligned_pointer_dereference17h008a4d0db91bd7f0E(i64 4, i64 %_13, ptr align 8 @alloc_9827a563701d5d18c5c686061b80577b) #13
  unreachable

bb2:                                              ; preds = %bb3
  %r = load i32, ptr %x, align 4
  call void @sink(i32 %r) #12
  ret void

panic1:                                           ; preds = %bb3
; call core::panicking::panic_misaligned_pointer_dereference
  call void @_ZN4core9panicking36panic_misaligned_pointer_dereference17h008a4d0db91bd7f0E(i64 4, i64 %_7, ptr align 8 @alloc_38474ef9db17481aceecf916bca7c81d) #13
  unreachable
}

; mssa_integration::multiple_stores
; Function Attrs: uwtable
define internal void @_ZN16mssa_integration15multiple_stores17haa0a841caa2ef9ecE() unnamed_addr #0 {
start:
  %x = alloca [4 x i8], align 4
  store i32 0, ptr %x, align 4
  %_25 = ptrtoint ptr %x to i64
  %_28 = and i64 %_25, 3
  %_29 = icmp eq i64 %_28, 0
  br i1 %_29, label %bb5, label %panic

bb5:                                              ; preds = %start
  store i32 1, ptr %x, align 4
  %_19 = ptrtoint ptr %x to i64
  %_22 = and i64 %_19, 3
  %_23 = icmp eq i64 %_22, 0
  br i1 %_23, label %bb4, label %panic1

panic:                                            ; preds = %start
; call core::panicking::panic_misaligned_pointer_dereference
  call void @_ZN4core9panicking36panic_misaligned_pointer_dereference17h008a4d0db91bd7f0E(i64 4, i64 %_25, ptr align 8 @alloc_e83ba521c27f9e2ad43237bf36ab5c52) #13
  unreachable

bb4:                                              ; preds = %bb5
  store i32 2, ptr %x, align 4
  %_13 = ptrtoint ptr %x to i64
  %_16 = and i64 %_13, 3
  %_17 = icmp eq i64 %_16, 0
  br i1 %_17, label %bb3, label %panic2

panic1:                                           ; preds = %bb5
; call core::panicking::panic_misaligned_pointer_dereference
  call void @_ZN4core9panicking36panic_misaligned_pointer_dereference17h008a4d0db91bd7f0E(i64 4, i64 %_19, ptr align 8 @alloc_0ff898d67f718c4ced42f72472118825) #13
  unreachable

bb3:                                              ; preds = %bb4
  store i32 3, ptr %x, align 4
  %_7 = ptrtoint ptr %x to i64
  %_10 = and i64 %_7, 3
  %_11 = icmp eq i64 %_10, 0
  br i1 %_11, label %bb2, label %panic3

panic2:                                           ; preds = %bb4
; call core::panicking::panic_misaligned_pointer_dereference
  call void @_ZN4core9panicking36panic_misaligned_pointer_dereference17h008a4d0db91bd7f0E(i64 4, i64 %_13, ptr align 8 @alloc_0bdce5fca1299388310de4da1a82cbd6) #13
  unreachable

bb2:                                              ; preds = %bb3
  %r = load i32, ptr %x, align 4
  call void @sink(i32 %r) #12
  ret void

panic3:                                           ; preds = %bb3
; call core::panicking::panic_misaligned_pointer_dereference
  call void @_ZN4core9panicking36panic_misaligned_pointer_dereference17h008a4d0db91bd7f0E(i64 4, i64 %_7, ptr align 8 @alloc_51a8e792acc6ee210fed95af31ec98a8) #13
  unreachable
}

; mssa_integration::no_alias_test
; Function Attrs: uwtable
define internal void @_ZN16mssa_integration13no_alias_test17h375b8bae881013f9E() unnamed_addr #0 {
start:
  %b = alloca [4 x i8], align 4
  %a = alloca [4 x i8], align 4
  store i32 0, ptr %a, align 4
  store i32 0, ptr %b, align 4
  %_30 = ptrtoint ptr %a to i64
  %_33 = and i64 %_30, 3
  %_34 = icmp eq i64 %_33, 0
  br i1 %_34, label %bb6, label %panic

bb6:                                              ; preds = %start
  store i32 10, ptr %a, align 4
  %_24 = ptrtoint ptr %b to i64
  %_27 = and i64 %_24, 3
  %_28 = icmp eq i64 %_27, 0
  br i1 %_28, label %bb5, label %panic1

panic:                                            ; preds = %start
; call core::panicking::panic_misaligned_pointer_dereference
  call void @_ZN4core9panicking36panic_misaligned_pointer_dereference17h008a4d0db91bd7f0E(i64 4, i64 %_30, ptr align 8 @alloc_3fa745afc8bf09980b42591d247df686) #13
  unreachable

bb5:                                              ; preds = %bb6
  store i32 20, ptr %b, align 4
  %_18 = ptrtoint ptr %a to i64
  %_21 = and i64 %_18, 3
  %_22 = icmp eq i64 %_21, 0
  br i1 %_22, label %bb4, label %panic2

panic1:                                           ; preds = %bb6
; call core::panicking::panic_misaligned_pointer_dereference
  call void @_ZN4core9panicking36panic_misaligned_pointer_dereference17h008a4d0db91bd7f0E(i64 4, i64 %_24, ptr align 8 @alloc_635f2d9d5fd811182e5898378d508194) #13
  unreachable

bb4:                                              ; preds = %bb5
  %ra = load i32, ptr %a, align 4
  %_12 = ptrtoint ptr %b to i64
  %_15 = and i64 %_12, 3
  %_16 = icmp eq i64 %_15, 0
  br i1 %_16, label %bb3, label %panic3

panic2:                                           ; preds = %bb5
; call core::panicking::panic_misaligned_pointer_dereference
  call void @_ZN4core9panicking36panic_misaligned_pointer_dereference17h008a4d0db91bd7f0E(i64 4, i64 %_18, ptr align 8 @alloc_4401a7b31c5d4f5267a83778c9213cac) #13
  unreachable

bb3:                                              ; preds = %bb4
  %rb = load i32, ptr %b, align 4
  call void @sink(i32 %ra) #12
  call void @sink(i32 %rb) #12
  ret void

panic3:                                           ; preds = %bb4
; call core::panicking::panic_misaligned_pointer_dereference
  call void @_ZN4core9panicking36panic_misaligned_pointer_dereference17h008a4d0db91bd7f0E(i64 4, i64 %_12, ptr align 8 @alloc_fd42f31ffce0ba9a10e4d1dec62ed2af) #13
  unreachable
}

; mssa_integration::conditional_store
; Function Attrs: uwtable
define internal void @_ZN16mssa_integration17conditional_store17hb2d38ca8b57a37f8E(i1 zeroext %cond) unnamed_addr #0 {
start:
  %x = alloca [4 x i8], align 4
  store i32 0, ptr %x, align 4
  br i1 %cond, label %bb1, label %bb2

bb2:                                              ; preds = %start
  %_14 = ptrtoint ptr %x to i64
  %_17 = and i64 %_14, 3
  %_18 = icmp eq i64 %_17, 0
  br i1 %_18, label %bb6, label %panic

bb1:                                              ; preds = %start
  %_20 = ptrtoint ptr %x to i64
  %_23 = and i64 %_20, 3
  %_24 = icmp eq i64 %_23, 0
  br i1 %_24, label %bb7, label %panic1

bb6:                                              ; preds = %bb2
  store i32 200, ptr %x, align 4
  br label %bb3

panic:                                            ; preds = %bb2
; call core::panicking::panic_misaligned_pointer_dereference
  call void @_ZN4core9panicking36panic_misaligned_pointer_dereference17h008a4d0db91bd7f0E(i64 4, i64 %_14, ptr align 8 @alloc_02b63e765e8886a76c6f0bd93d754874) #13
  unreachable

bb3:                                              ; preds = %bb7, %bb6
  %_8 = ptrtoint ptr %x to i64
  %_11 = and i64 %_8, 3
  %_12 = icmp eq i64 %_11, 0
  br i1 %_12, label %bb5, label %panic2

bb7:                                              ; preds = %bb1
  store i32 100, ptr %x, align 4
  br label %bb3

panic1:                                           ; preds = %bb1
; call core::panicking::panic_misaligned_pointer_dereference
  call void @_ZN4core9panicking36panic_misaligned_pointer_dereference17h008a4d0db91bd7f0E(i64 4, i64 %_20, ptr align 8 @alloc_8d98b83ee87ff1ab11c0782cd5eab5e6) #13
  unreachable

bb5:                                              ; preds = %bb3
  %r = load i32, ptr %x, align 4
  call void @sink(i32 %r) #12
  ret void

panic2:                                           ; preds = %bb3
; call core::panicking::panic_misaligned_pointer_dereference
  call void @_ZN4core9panicking36panic_misaligned_pointer_dereference17h008a4d0db91bd7f0E(i64 4, i64 %_8, ptr align 8 @alloc_3d2d339dab3f1c110c51dac244db5b73) #13
  unreachable
}

; mssa_integration::loop_store
; Function Attrs: uwtable
define internal void @_ZN16mssa_integration10loop_store17h9b8e805160d76ca7E(i32 %n) unnamed_addr #0 {
start:
  %_8 = alloca [8 x i8], align 4
  %iter = alloca [8 x i8], align 4
  %counter = alloca [4 x i8], align 4
  store i32 0, ptr %counter, align 4
; call <I as core::iter::traits::collect::IntoIterator>::into_iter
  %0 = call { i32, i32 } @"_ZN63_$LT$I$u20$as$u20$core..iter..traits..collect..IntoIterator$GT$9into_iter17h773c5d04e490fe31E"(i32 0, i32 %n)
  %_5.0 = extractvalue { i32, i32 } %0, 0
  %_5.1 = extractvalue { i32, i32 } %0, 1
  store i32 %_5.0, ptr %iter, align 4
  %1 = getelementptr inbounds i8, ptr %iter, i64 4
  store i32 %_5.1, ptr %1, align 4
  br label %bb2

bb2:                                              ; preds = %bb9, %start
; call core::iter::range::<impl core::iter::traits::iterator::Iterator for core::ops::range::Range<A>>::next
  %2 = call { i32, i32 } @"_ZN4core4iter5range101_$LT$impl$u20$core..iter..traits..iterator..Iterator$u20$for$u20$core..ops..range..Range$LT$A$GT$$GT$4next17hb4c4cae1779fe99cE"(ptr align 4 %iter)
  %3 = extractvalue { i32, i32 } %2, 0
  %4 = extractvalue { i32, i32 } %2, 1
  store i32 %3, ptr %_8, align 4
  %5 = getelementptr inbounds i8, ptr %_8, i64 4
  store i32 %4, ptr %5, align 4
  %6 = load i32, ptr %_8, align 4
  %_10 = zext i32 %6 to i64
  %7 = icmp eq i64 %_10, 0
  br i1 %7, label %bb6, label %bb5

bb6:                                              ; preds = %bb2
  %_23 = ptrtoint ptr %counter to i64
  %_26 = and i64 %_23, 3
  %_27 = icmp eq i64 %_26, 0
  br i1 %_27, label %bb10, label %panic

bb5:                                              ; preds = %bb2
  %8 = getelementptr inbounds i8, ptr %_8, i64 4
  %i = load i32, ptr %8, align 4
  %_29 = ptrtoint ptr %counter to i64
  %_32 = and i64 %_29, 3
  %_33 = icmp eq i64 %_32, 0
  br i1 %_33, label %bb11, label %panic1

bb10:                                             ; preds = %bb6
  %r = load i32, ptr %counter, align 4
  call void @sink(i32 %r) #12
  ret void

panic:                                            ; preds = %bb6
; call core::panicking::panic_misaligned_pointer_dereference
  call void @_ZN4core9panicking36panic_misaligned_pointer_dereference17h008a4d0db91bd7f0E(i64 4, i64 %_23, ptr align 8 @alloc_8c119ea8ecdcc67fd49851a49ea68597) #13
  unreachable

bb11:                                             ; preds = %bb5
  %_12 = load i32, ptr %counter, align 4
  %9 = call { i32, i1 } @llvm.sadd.with.overflow.i32(i32 %_12, i32 1)
  %_13.0 = extractvalue { i32, i1 } %9, 0
  %_13.1 = extractvalue { i32, i1 } %9, 1
  br i1 %_13.1, label %panic2, label %bb7

panic1:                                           ; preds = %bb5
  %_29.lcssa = phi i64 [ %_29, %bb5 ]
; call core::panicking::panic_misaligned_pointer_dereference
  call void @_ZN4core9panicking36panic_misaligned_pointer_dereference17h008a4d0db91bd7f0E(i64 4, i64 %_29.lcssa, ptr align 8 @alloc_024ce418cce1be3894ac1bafbcadd0a1) #13
  unreachable

bb7:                                              ; preds = %bb11
  %_17 = ptrtoint ptr %counter to i64
  %_20 = and i64 %_17, 3
  %_21 = icmp eq i64 %_20, 0
  br i1 %_21, label %bb9, label %panic3

panic2:                                           ; preds = %bb11
; call core::panicking::panic_const::panic_const_add_overflow
  call void @_ZN4core9panicking11panic_const24panic_const_add_overflow17h77c4220018e275ffE(ptr align 8 @alloc_024ce418cce1be3894ac1bafbcadd0a1) #14
  unreachable

bb9:                                              ; preds = %bb7
  store i32 %_13.0, ptr %counter, align 4
  br label %bb2

panic3:                                           ; preds = %bb7
  %_17.lcssa = phi i64 [ %_17, %bb7 ]
; call core::panicking::panic_misaligned_pointer_dereference
  call void @_ZN4core9panicking36panic_misaligned_pointer_dereference17h008a4d0db91bd7f0E(i64 4, i64 %_17.lcssa, ptr align 8 @alloc_4eaab3ca0808d39e68125b514067d612) #13
  unreachable

bb4:                                              ; No predecessors!
  unreachable
}

; mssa_integration::slice_pointer
; Function Attrs: uwtable
define internal void @_ZN16mssa_integration13slice_pointer17h33009d719ed9d5baE() unnamed_addr #0 {
start:
  %arr = alloca [16 x i8], align 4
  call void @llvm.memset.p0.i64(ptr align 4 %arr, i8 0, i64 16, i1 false)
  %_30 = ptrtoint ptr %arr to i64
  %_33 = and i64 %_30, 3
  %_34 = icmp eq i64 %_33, 0
  br i1 %_34, label %bb9, label %panic

bb9:                                              ; preds = %start
  store i32 111, ptr %arr, align 4
  %_0.i4 = getelementptr inbounds i32, ptr %arr, i64 1
  %_24 = ptrtoint ptr %_0.i4 to i64
  %_27 = and i64 %_24, 3
  %_28 = icmp eq i64 %_27, 0
  br i1 %_28, label %bb8, label %panic1

panic:                                            ; preds = %start
; call core::panicking::panic_misaligned_pointer_dereference
  call void @_ZN4core9panicking36panic_misaligned_pointer_dereference17h008a4d0db91bd7f0E(i64 4, i64 %_30, ptr align 8 @alloc_8bb00950464488bd5a6bd826ab5d0f16) #13
  unreachable

bb8:                                              ; preds = %bb9
  store i32 222, ptr %_0.i4, align 4
  %_18 = ptrtoint ptr %arr to i64
  %_21 = and i64 %_18, 3
  %_22 = icmp eq i64 %_21, 0
  br i1 %_22, label %bb7, label %panic2

panic1:                                           ; preds = %bb9
; call core::panicking::panic_misaligned_pointer_dereference
  call void @_ZN4core9panicking36panic_misaligned_pointer_dereference17h008a4d0db91bd7f0E(i64 4, i64 %_24, ptr align 8 @alloc_33c3b324516810f5d5dce7553edb36ba) #13
  unreachable

bb7:                                              ; preds = %bb8
  %r0 = load i32, ptr %arr, align 4
  %_0.i = getelementptr inbounds i32, ptr %arr, i64 1
  %_12 = ptrtoint ptr %_0.i to i64
  %_15 = and i64 %_12, 3
  %_16 = icmp eq i64 %_15, 0
  br i1 %_16, label %bb6, label %panic3

panic2:                                           ; preds = %bb8
; call core::panicking::panic_misaligned_pointer_dereference
  call void @_ZN4core9panicking36panic_misaligned_pointer_dereference17h008a4d0db91bd7f0E(i64 4, i64 %_18, ptr align 8 @alloc_c275870330e57786c3df3622478048f9) #13
  unreachable

bb6:                                              ; preds = %bb7
  %r1 = load i32, ptr %_0.i, align 4
  call void @sink(i32 %r0) #12
  call void @sink(i32 %r1) #12
  ret void

panic3:                                           ; preds = %bb7
; call core::panicking::panic_misaligned_pointer_dereference
  call void @_ZN4core9panicking36panic_misaligned_pointer_dereference17h008a4d0db91bd7f0E(i64 4, i64 %_12, ptr align 8 @alloc_14ac2ee2a37d94d03ba5ba7582329b69) #13
  unreachable
}

; Function Attrs: nounwind uwtable
define dso_local void @rust_mssa_test() unnamed_addr #5 personality ptr @rust_eh_personality {
start:
; invoke mssa_integration::simple_store_load
  invoke void @_ZN16mssa_integration17simple_store_load17h9c876f468b987033E()
          to label %bb1 unwind label %terminate

terminate:                                        ; preds = %bb5, %bb4, %bb3, %bb2, %bb1, %start
  %0 = landingpad { ptr, i32 }
          filter [0 x ptr] zeroinitializer
  %1 = extractvalue { ptr, i32 } %0, 0
  %2 = extractvalue { ptr, i32 } %0, 1
; call core::panicking::panic_cannot_unwind
  call void @_ZN4core9panicking19panic_cannot_unwind17h12e05d862732edabE() #15
  unreachable

bb1:                                              ; preds = %start
; invoke mssa_integration::multiple_stores
  invoke void @_ZN16mssa_integration15multiple_stores17haa0a841caa2ef9ecE()
          to label %bb2 unwind label %terminate

bb2:                                              ; preds = %bb1
; invoke mssa_integration::no_alias_test
  invoke void @_ZN16mssa_integration13no_alias_test17h375b8bae881013f9E()
          to label %bb3 unwind label %terminate

bb3:                                              ; preds = %bb2
; invoke mssa_integration::conditional_store
  invoke void @_ZN16mssa_integration17conditional_store17hb2d38ca8b57a37f8E(i1 zeroext true)
          to label %bb4 unwind label %terminate

bb4:                                              ; preds = %bb3
; invoke mssa_integration::loop_store
  invoke void @_ZN16mssa_integration10loop_store17h9b8e805160d76ca7E(i32 5)
          to label %bb5 unwind label %terminate

bb5:                                              ; preds = %bb4
; invoke mssa_integration::slice_pointer
  invoke void @_ZN16mssa_integration13slice_pointer17h33009d719ed9d5baE()
          to label %bb6 unwind label %terminate

bb6:                                              ; preds = %bb5
  ret void
}

; mssa_integration::main
; Function Attrs: uwtable
define internal void @_ZN16mssa_integration4main17h6fd42db2dc4db73fE() unnamed_addr #0 {
start:
  call void @rust_mssa_test() #12
  ret void
}

; std::rt::lang_start_internal
; Function Attrs: uwtable
declare i64 @_ZN3std2rt19lang_start_internal17he1ad9a314bd0157aE(ptr align 1, ptr align 8, i64, ptr, i8) unnamed_addr #0

; Function Attrs: nocallback nofree nosync nounwind speculatable willreturn memory(none)
declare { i32, i1 } @llvm.sadd.with.overflow.i32(i32, i32) #6

; Function Attrs: nounwind uwtable
declare i32 @rust_eh_personality(i32, i32, i64, ptr, ptr) unnamed_addr #5

; core::panicking::panic_nounwind
; Function Attrs: cold noinline noreturn nounwind uwtable
declare void @_ZN4core9panicking14panic_nounwind17h9be992513d3fde16E(ptr align 1, i64) unnamed_addr #7

; core::panicking::panic_misaligned_pointer_dereference
; Function Attrs: cold minsize noinline noreturn nounwind optsize uwtable
declare void @_ZN4core9panicking36panic_misaligned_pointer_dereference17h008a4d0db91bd7f0E(i64, i64, ptr align 8) unnamed_addr #8

; Function Attrs: nounwind uwtable
declare void @sink(i32) unnamed_addr #5

; core::panicking::panic_const::panic_const_add_overflow
; Function Attrs: cold noinline noreturn uwtable
declare void @_ZN4core9panicking11panic_const24panic_const_add_overflow17h77c4220018e275ffE(ptr align 8) unnamed_addr #9

; Function Attrs: nocallback nofree nounwind willreturn memory(argmem: write)
declare void @llvm.memset.p0.i64(ptr nocapture writeonly, i8, i64, i1 immarg) #10

; core::panicking::panic_cannot_unwind
; Function Attrs: cold minsize noinline noreturn nounwind optsize uwtable
declare void @_ZN4core9panicking19panic_cannot_unwind17h12e05d862732edabE() unnamed_addr #8

define i32 @main(i32 %0, ptr %1) unnamed_addr #11 {
top:
  %2 = sext i32 %0 to i64
; call std::rt::lang_start
  %3 = call i64 @_ZN3std2rt10lang_start17h1807a72508d8caeaE(ptr @_ZN16mssa_integration4main17h6fd42db2dc4db73fE, i64 %2, ptr %1, i8 0)
  %4 = trunc i64 %3 to i32
  ret i32 %4
}

attributes #0 = { uwtable "probe-stack"="inline-asm" "target-cpu"="generic" "target-features"="+v8a,+outline-atomics" }
attributes #1 = { inlinehint uwtable "probe-stack"="inline-asm" "target-cpu"="generic" "target-features"="+v8a,+outline-atomics" }
attributes #2 = { noinline uwtable "probe-stack"="inline-asm" "target-cpu"="generic" "target-features"="+v8a,+outline-atomics" }
attributes #3 = { cold nounwind uwtable "probe-stack"="inline-asm" "target-cpu"="generic" "target-features"="+v8a,+outline-atomics" }
attributes #4 = { inlinehint nounwind uwtable "probe-stack"="inline-asm" "target-cpu"="generic" "target-features"="+v8a,+outline-atomics" }
attributes #5 = { nounwind uwtable "probe-stack"="inline-asm" "target-cpu"="generic" "target-features"="+v8a,+outline-atomics" }
attributes #6 = { nocallback nofree nosync nounwind speculatable willreturn memory(none) }
attributes #7 = { cold noinline noreturn nounwind uwtable "probe-stack"="inline-asm" "target-cpu"="generic" "target-features"="+v8a,+outline-atomics" }
attributes #8 = { cold minsize noinline noreturn nounwind optsize uwtable "probe-stack"="inline-asm" "target-cpu"="generic" "target-features"="+v8a,+outline-atomics" }
attributes #9 = { cold noinline noreturn uwtable "probe-stack"="inline-asm" "target-cpu"="generic" "target-features"="+v8a,+outline-atomics" }
attributes #10 = { nocallback nofree nounwind willreturn memory(argmem: write) }
attributes #11 = { "target-cpu"="generic" }
attributes #12 = { nounwind }
attributes #13 = { noreturn nounwind }
attributes #14 = { noreturn }
attributes #15 = { cold noreturn nounwind }

!llvm.module.flags = !{!0, !1}
!llvm.ident = !{!2}

!0 = !{i32 8, !"PIC Level", i32 2}
!1 = !{i32 7, !"PIE Level", i32 2}
!2 = !{!"rustc version 1.85.0 (4d91de4e4 2025-02-17)"}
!3 = !{i64 9351410820921580}
